(iocelot.optics.bragg
CrystalStructureFactors
p0
(dp1
S'fh'
p2
(lp3
c__builtin__
complex
p4
(Fnan
Fnan
tp5
Rp6
ag4
(Fnan
Fnan
tp7
Rp8
ag4
(Fnan
Fnan
tp9
Rp10
ag4
(Fnan
Fnan
tp11
Rp12
ag4
(Fnan
Fnan
tp13
Rp14
ag4
(Fnan
Fnan
tp15
Rp16
ag4
(Fnan
Fnan
tp17
Rp18
ag4
(Fnan
Fnan
tp19
Rp20
ag4
(Fnan
Fnan
tp21
Rp22
ag4
(Fnan
Fnan
tp23
Rp24
ag4
(Fnan
Fnan
tp25
Rp26
ag4
(Fnan
Fnan
tp27
Rp28
ag4
(Fnan
Fnan
tp29
Rp30
ag4
(Fnan
Fnan
tp31
Rp32
ag4
(Fnan
Fnan
tp33
Rp34
ag4
(Fnan
Fnan
tp35
Rp36
ag4
(Fnan
Fnan
tp37
Rp38
ag4
(Fnan
Fnan
tp39
Rp40
ag4
(Fnan
Fnan
tp41
Rp42
ag4
(Fnan
Fnan
tp43
Rp44
ag4
(Fnan
Fnan
tp45
Rp46
ag4
(Fnan
Fnan
tp47
Rp48
ag4
(Fnan
Fnan
tp49
Rp50
ag4
(Fnan
Fnan
tp51
Rp52
ag4
(Fnan
Fnan
tp53
Rp54
ag4
(Fnan
Fnan
tp55
Rp56
ag4
(Fnan
Fnan
tp57
Rp58
ag4
(Fnan
Fnan
tp59
Rp60
ag4
(Fnan
Fnan
tp61
Rp62
ag4
(Fnan
Fnan
tp63
Rp64
ag4
(Fnan
Fnan
tp65
Rp66
ag4
(Fnan
Fnan
tp67
Rp68
ag4
(Fnan
Fnan
tp69
Rp70
ag4
(Fnan
Fnan
tp71
Rp72
ag4
(Fnan
Fnan
tp73
Rp74
ag4
(Fnan
Fnan
tp75
Rp76
ag4
(Fnan
Fnan
tp77
Rp78
ag4
(Fnan
Fnan
tp79
Rp80
ag4
(Fnan
Fnan
tp81
Rp82
ag4
(Fnan
Fnan
tp83
Rp84
ag4
(Fnan
Fnan
tp85
Rp86
ag4
(Fnan
Fnan
tp87
Rp88
ag4
(Fnan
Fnan
tp89
Rp90
ag4
(Fnan
Fnan
tp91
Rp92
ag4
(Fnan
Fnan
tp93
Rp94
ag4
(F13.061662
F0.10606065
tp95
Rp96
ag4
(F13.061155
F0.10572994
tp97
Rp98
ag4
(F13.060648
F0.10539923
tp99
Rp100
ag4
(F13.060142
F0.10506852
tp101
Rp102
ag4
(F13.059635
F0.10473781
tp103
Rp104
ag4
(F13.05913
F0.10440845
tp105
Rp106
ag4
(F13.058631
F0.10408314
tp107
Rp108
ag4
(F13.058131
F0.10375784
tp109
Rp110
ag4
(F13.057632
F0.10343254
tp111
Rp112
ag4
(F13.057133
F0.10310723
tp113
Rp114
ag4
(F13.056635
F0.10278374
tp115
Rp116
ag4
(F13.056142
F0.10246502
tp117
Rp118
ag4
(F13.055648
F0.1021463
tp119
Rp120
ag4
(F13.055154
F0.10182758
tp121
Rp122
ag4
(F13.05466
F0.10150886
tp123
Rp124
ag4
(F13.054169
F0.10119292
tp125
Rp126
ag4
(F13.053686
F0.10088346
tp127
Rp128
ag4
(F13.053202
F0.100574
tp129
Rp130
ag4
(F13.052718
F0.10026454
tp131
Rp132
ag4
(F13.052234
F0.099955082
tp133
Rp134
ag4
(F13.051751
F0.099646233
tp135
Rp136
ag4
(F13.051268
F0.099338649
tp137
Rp138
ag4
(F13.050786
F0.099031065
tp139
Rp140
ag4
(F13.050304
F0.098723481
tp141
Rp142
ag4
(F13.049822
F0.098415897
tp143
Rp144
ag4
(F13.049346
F0.098112885
tp145
Rp146
ag4
(F13.048883
F0.097818365
tp147
Rp148
ag4
(F13.04842
F0.097523845
tp149
Rp150
ag4
(F13.047957
F0.097229324
tp151
Rp152
ag4
(F13.047493
F0.096934804
tp153
Rp154
ag4
(F13.047031
F0.096640284
tp155
Rp156
ag4
(F13.046568
F0.096345765
tp157
Rp158
ag4
(F13.046106
F0.096051247
tp159
Rp160
ag4
(F13.045643
F0.095756728
tp161
Rp162
ag4
(F13.045181
F0.095462209
tp163
Rp164
ag4
(F13.044725
F0.0951723
tp165
Rp166
ag4
(F13.044279
F0.094889305
tp167
Rp168
ag4
(F13.043833
F0.09460631
tp169
Rp170
ag4
(F13.043386
F0.094323315
tp171
Rp172
ag4
(F13.04294
F0.094040321
tp173
Rp174
ag4
(F13.042495
F0.093758561
tp175
Rp176
ag4
(F13.042053
F0.093478473
tp177
Rp178
ag4
(F13.041611
F0.093198385
tp179
Rp180
ag4
(F13.041168
F0.092918298
tp181
Rp182
ag4
(F13.040726
F0.09263821
tp183
Rp184
ag4
(F13.040286
F0.092360737
tp185
Rp186
ag4
(F13.03985
F0.092086461
tp187
Rp188
ag4
(F13.039414
F0.091812186
tp189
Rp190
ag4
(F13.038977
F0.09153791
tp191
Rp192
ag4
(F13.038541
F0.091263634
tp193
Rp194
ag4
(F13.038109
F0.090992962
tp195
Rp196
ag4
(F13.037681
F0.090726271
tp197
Rp198
ag4
(F13.037253
F0.090459581
tp199
Rp200
ag4
(F13.036825
F0.090192891
tp201
Rp202
ag4
(F13.036397
F0.0899262
tp203
Rp204
ag4
(F13.035969
F0.089659711
tp205
Rp206
ag4
(F13.035541
F0.089393424
tp207
Rp208
ag4
(F13.035114
F0.089127136
tp209
Rp210
ag4
(F13.034686
F0.088860849
tp211
Rp212
ag4
(F13.034258
F0.088594561
tp213
Rp214
ag4
(F13.033841
F0.088334897
tp215
Rp216
ag4
(F13.033433
F0.088081225
tp217
Rp218
ag4
(F13.033025
F0.087827554
tp219
Rp220
ag4
(F13.032617
F0.087573882
tp221
Rp222
ag4
(F13.032209
F0.08732021
tp223
Rp224
ag4
(F13.0318
F0.087066538
tp225
Rp226
ag4
(F13.031392
F0.086812865
tp227
Rp228
ag4
(F13.030983
F0.086559192
tp229
Rp230
ag4
(F13.030574
F0.086305518
tp231
Rp232
ag4
(F13.030166
F0.086051845
tp233
Rp234
ag4
(F13.029764
F0.085802377
tp235
Rp236
ag4
(F13.029368
F0.085556017
tp237
Rp238
ag4
(F13.028971
F0.085309656
tp239
Rp240
ag4
(F13.028575
F0.085063296
tp241
Rp242
ag4
(F13.028178
F0.084816935
tp243
Rp244
ag4
(F13.027786
F0.084573632
tp245
Rp246
ag4
(F13.027397
F0.084332366
tp247
Rp248
ag4
(F13.027007
F0.084091101
tp249
Rp250
ag4
(F13.026618
F0.083849835
tp251
Rp252
ag4
(F13.026228
F0.08360857
tp253
Rp254
ag4
(F13.02584
F0.083368089
tp255
Rp256
ag4
(F13.025453
F0.083128078
tp257
Rp258
ag4
(F13.025066
F0.082888068
tp259
Rp260
ag4
(F13.024678
F0.082648057
tp261
Rp262
ag4
(F13.024291
F0.082408047
tp263
Rp264
ag4
(F13.023911
F0.082174779
tp265
Rp266
ag4
(F13.023534
F0.081945142
tp267
Rp268
ag4
(F13.023158
F0.081715506
tp269
Rp270
ag4
(F13.022781
F0.081485869
tp271
Rp272
ag4
(F13.022405
F0.081256233
tp273
Rp274
ag4
(F13.022029
F0.081026596
tp275
Rp276
ag4
(F13.021653
F0.080796959
tp277
Rp278
ag4
(F13.021277
F0.080567323
tp279
Rp280
ag4
(F13.020902
F0.080337686
tp281
Rp282
ag4
(F13.020526
F0.080108049
tp283
Rp284
ag4
(F13.020155
F0.079883001
tp285
Rp286
ag4
(F13.019785
F0.07965992
tp287
Rp288
ag4
(F13.019415
F0.079436838
tp289
Rp290
ag4
(F13.019046
F0.079213756
tp291
Rp292
ag4
(F13.018676
F0.078990675
tp293
Rp294
ag4
(F13.018311
F0.078770948
tp295
Rp296
ag4
(F13.017948
F0.078552494
tp297
Rp298
ag4
(F13.017584
F0.07833404
tp299
Rp300
ag4
(F13.017221
F0.078115586
tp301
Rp302
ag4
(F13.016857
F0.077897132
tp303
Rp304
ag4
(F13.016493
F0.07767887
tp305
Rp306
ag4
(F13.016129
F0.077460672
tp307
Rp308
ag4
(F13.015765
F0.077242474
tp309
Rp310
ag4
(F13.015401
F0.077024276
tp311
Rp312
ag4
(F13.015036
F0.076806079
tp313
Rp314
ag4
(F13.014686
F0.076595971
tp315
Rp316
ag4
(F13.014341
F0.076388213
tp317
Rp318
ag4
(F13.013995
F0.076180455
tp319
Rp320
ag4
(F13.013649
F0.075972697
tp321
Rp322
ag4
(F13.013303
F0.075764939
tp323
Rp324
ag4
(F13.012957
F0.075557181
tp325
Rp326
ag4
(F13.012612
F0.075349423
tp327
Rp328
ag4
(F13.012266
F0.075141665
tp329
Rp330
ag4
(F13.01192
F0.074933906
tp331
Rp332
ag4
(F13.011574
F0.074726148
tp333
Rp334
ag4
(F13.011233
F0.074521913
tp335
Rp336
ag4
(F13.010892
F0.074318424
tp337
Rp338
ag4
(F13.010552
F0.074114936
tp339
Rp340
ag4
(F13.010211
F0.073911447
tp341
Rp342
ag4
(F13.009871
F0.073707959
tp343
Rp344
ag4
(F13.009536
F0.073509476
tp345
Rp346
ag4
(F13.009201
F0.073311876
tp347
Rp348
ag4
(F13.008867
F0.073114276
tp349
Rp350
ag4
(F13.008533
F0.072916676
tp351
Rp352
ag4
(F13.008198
F0.072719076
tp353
Rp354
ag4
(F13.007864
F0.072521475
tp355
Rp356
ag4
(F13.00753
F0.072323874
tp357
Rp358
ag4
(F13.007196
F0.072126272
tp359
Rp360
ag4
(F13.006861
F0.071928671
tp361
Rp362
ag4
(F13.006527
F0.071731069
tp363
Rp364
ag4
(F13.006204
F0.071540159
tp365
Rp366
ag4
(F13.005883
F0.071349991
tp367
Rp368
ag4
(F13.005562
F0.071159824
tp369
Rp370
ag4
(F13.005241
F0.070969657
tp371
Rp372
ag4
(F13.004919
F0.07077949
tp373
Rp374
ag4
(F13.004602
F0.070591323
tp375
Rp376
ag4
(F13.004286
F0.070403318
tp377
Rp378
ag4
(F13.003969
F0.070215313
tp379
Rp380
ag4
(F13.003652
F0.070027309
tp381
Rp382
ag4
(F13.003335
F0.069839304
tp383
Rp384
ag4
(F13.003019
F0.069652056
tp385
Rp386
ag4
(F13.002702
F0.069464848
tp387
Rp388
ag4
(F13.002385
F0.06927764
tp389
Rp390
ag4
(F13.002069
F0.069090432
tp391
Rp392
ag4
(F13.001752
F0.068903224
tp393
Rp394
ag4
(F13.00144
F0.068724256
tp395
Rp396
ag4
(F13.001128
F0.068545499
tp397
Rp398
ag4
(F13.000816
F0.068366742
tp399
Rp400
ag4
(F13.000504
F0.068187985
tp401
Rp402
ag4
(F13.000192
F0.068009228
tp403
Rp404
ag4
(F12.99988
F0.067830472
tp405
Rp406
ag4
(F12.999567
F0.067651716
tp407
Rp408
ag4
(F12.999255
F0.067472961
tp409
Rp410
ag4
(F12.998943
F0.067294205
tp411
Rp412
ag4
(F12.998631
F0.067115528
tp413
Rp414
ag4
(F12.998328
F0.066939887
tp415
Rp416
ag4
(F12.998024
F0.066764247
tp417
Rp418
ag4
(F12.997721
F0.066588606
tp419
Rp420
ag4
(F12.997417
F0.066412966
tp421
Rp422
ag4
(F12.997114
F0.066237609
tp423
Rp424
ag4
(F12.996824
F0.066067648
tp425
Rp426
ag4
(F12.996534
F0.065897686
tp427
Rp428
ag4
(F12.996244
F0.065727724
tp429
Rp430
ag4
(F12.995955
F0.065557763
tp431
Rp432
ag4
(F12.995665
F0.065387801
tp433
Rp434
ag4
(F12.995375
F0.065217841
tp435
Rp436
ag4
(F12.995085
F0.065047881
tp437
Rp438
ag4
(F12.994795
F0.064877921
tp439
Rp440
ag4
(F12.994505
F0.064707961
tp441
Rp442
ag4
(F12.994216
F0.064538477
tp443
Rp444
ag4
(F12.993929
F0.064373276
tp445
Rp446
ag4
(F12.993642
F0.064208075
tp447
Rp448
ag4
(F12.993355
F0.064042875
tp449
Rp450
ag4
(F12.993069
F0.063877674
tp451
Rp452
ag4
(F12.992782
F0.063712908
tp453
Rp454
ag4
(F12.992498
F0.063551186
tp455
Rp456
ag4
(F12.992213
F0.063389464
tp457
Rp458
ag4
(F12.991929
F0.063227743
tp459
Rp460
ag4
(F12.991644
F0.063066021
tp461
Rp462
ag4
(F12.99136
F0.062904299
tp463
Rp464
ag4
(F12.991075
F0.062742577
tp465
Rp466
ag4
(F12.990789
F0.062580856
tp467
Rp468
ag4
(F12.990504
F0.062419134
tp469
Rp470
ag4
(F12.990219
F0.062257412
tp471
Rp472
ag4
(F12.989936
F0.06209674
tp473
Rp474
ag4
(F12.989663
F0.06194102
tp475
Rp476
ag4
(F12.98939
F0.061785299
tp477
Rp478
ag4
(F12.989117
F0.061629578
tp479
Rp480
ag4
(F12.988844
F0.061473857
tp481
Rp482
ag4
(F12.988572
F0.061318522
tp483
Rp484
ag4
(F12.988302
F0.061164729
tp485
Rp486
ag4
(F12.988033
F0.061010936
tp487
Rp488
ag4
(F12.987764
F0.060857143
tp489
Rp490
ag4
(F12.987495
F0.060703351
tp491
Rp492
ag4
(F12.987226
F0.060549558
tp493
Rp494
ag4
(F12.986956
F0.060395765
tp495
Rp496
ag4
(F12.986686
F0.060241973
tp497
Rp498
ag4
(F12.986416
F0.06008818
tp499
Rp500
ag4
(F12.986146
F0.059934387
tp501
Rp502
ag4
(F12.985879
F0.059782289
tp503
Rp504
ag4
(F12.985619
F0.059635275
tp505
Rp506
ag4
(F12.985359
F0.059488262
tp507
Rp508
ag4
(F12.985099
F0.059341248
tp509
Rp510
ag4
(F12.984839
F0.059194234
tp511
Rp512
ag4
(F12.984579
F0.05904745
tp513
Rp514
ag4
(F12.984319
F0.058901274
tp515
Rp516
ag4
(F12.984059
F0.058755097
tp517
Rp518
ag4
(F12.983799
F0.05860892
tp519
Rp520
ag4
(F12.983539
F0.058462744
tp521
Rp522
ag4
(F12.98328
F0.058316567
tp523
Rp524
ag4
(F12.98302
F0.058170391
tp525
Rp526
ag4
(F12.982761
F0.058024214
tp527
Rp528
ag4
(F12.982502
F0.057878037
tp529
Rp530
ag4
(F12.982243
F0.057731861
tp531
Rp532
ag4
(F12.981987
F0.057587959
tp533
Rp534
ag4
(F12.981737
F0.057448783
tp535
Rp536
ag4
(F12.981487
F0.057309607
tp537
Rp538
ag4
(F12.981237
F0.057170431
tp539
Rp540
ag4
(F12.980987
F0.057031255
tp541
Rp542
ag4
(F12.980737
F0.056892137
tp543
Rp544
ag4
(F12.980487
F0.056753127
tp545
Rp546
ag4
(F12.980237
F0.056614117
tp547
Rp548
ag4
(F12.979987
F0.056475107
tp549
Rp550
ag4
(F12.979737
F0.056336097
tp551
Rp552
ag4
(F12.979487
F0.05619713
tp553
Rp554
ag4
(F12.979237
F0.056058235
tp555
Rp556
ag4
(F12.978987
F0.05591934
tp557
Rp558
ag4
(F12.978737
F0.055780445
tp559
Rp560
ag4
(F12.978487
F0.055641549
tp561
Rp562
ag4
(F12.978241
F0.055505372
tp563
Rp564
ag4
(F12.978001
F0.055373273
tp565
Rp566
ag4
(F12.977761
F0.055241174
tp567
Rp568
ag4
(F12.977521
F0.055109075
tp569
Rp570
ag4
(F12.977281
F0.054976976
tp571
Rp572
ag4
(F12.977041
F0.054844877
tp573
Rp574
ag4
(F12.9768
F0.054712778
tp575
Rp576
ag4
(F12.976559
F0.05458068
tp577
Rp578
ag4
(F12.976319
F0.054448582
tp579
Rp580
ag4
(F12.976078
F0.054316483
tp581
Rp582
ag4
(F12.975837
F0.054184409
tp583
Rp584
ag4
(F12.975596
F0.054052366
tp585
Rp586
ag4
(F12.975356
F0.053920322
tp587
Rp588
ag4
(F12.975115
F0.053788278
tp589
Rp590
ag4
(F12.974874
F0.053656234
tp591
Rp592
ag4
(F12.974638
F0.053527251
tp593
Rp594
ag4
(F12.974406
F0.053401651
tp595
Rp596
ag4
(F12.974174
F0.053276051
tp597
Rp598
ag4
(F12.973943
F0.05315045
tp599
Rp600
ag4
(F12.973711
F0.05302485
tp601
Rp602
ag4
(F12.97348
F0.052899249
tp603
Rp604
ag4
(F12.973248
F0.052773648
tp605
Rp606
ag4
(F12.973017
F0.052648047
tp607
Rp608
ag4
(F12.972785
F0.052522446
tp609
Rp610
ag4
(F12.972553
F0.052396845
tp611
Rp612
ag4
(F12.972322
F0.052271244
tp613
Rp614
ag4
(F12.972092
F0.052145644
tp615
Rp616
ag4
(F12.971861
F0.052020044
tp617
Rp618
ag4
(F12.97163
F0.051894443
tp619
Rp620
ag4
(F12.971399
F0.051768843
tp621
Rp622
ag4
(F12.971175
F0.051646423
tp623
Rp624
ag4
(F12.970957
F0.051526606
tp625
Rp626
ag4
(F12.970738
F0.051406789
tp627
Rp628
ag4
(F12.970519
F0.051286972
tp629
Rp630
ag4
(F12.970301
F0.051167154
tp631
Rp632
ag4
(F12.970083
F0.051047506
tp633
Rp634
ag4
(F12.969866
F0.050927982
tp635
Rp636
ag4
(F12.969649
F0.050808458
tp637
Rp638
ag4
(F12.969432
F0.050688934
tp639
Rp640
ag4
(F12.969215
F0.050569411
tp641
Rp642
ag4
(F12.968998
F0.050449887
tp643
Rp644
ag4
(F12.96878
F0.050330363
tp645
Rp646
ag4
(F12.968562
F0.050210839
tp647
Rp648
ag4
(F12.968345
F0.050091315
tp649
Rp650
ag4
(F12.968127
F0.049971792
tp651
Rp652
ag4
(F12.967911
F0.04985545
tp653
Rp654
ag4
(F12.967696
F0.049741017
tp655
Rp656
ag4
(F12.967482
F0.049626584
tp657
Rp658
ag4
(F12.967267
F0.049512152
tp659
Rp660
ag4
(F12.967052
F0.049397719
tp661
Rp662
ag4
(F12.966838
F0.049283892
tp663
Rp664
ag4
(F12.966624
F0.049170391
tp665
Rp666
ag4
(F12.96641
F0.049056889
tp667
Rp668
ag4
(F12.966196
F0.048943388
tp669
Rp670
ag4
(F12.965982
F0.048829887
tp671
Rp672
ag4
(F12.965768
F0.048716386
tp673
Rp674
ag4
(F12.965554
F0.048602885
tp675
Rp676
ag4
(F12.96534
F0.048489384
tp677
Rp678
ag4
(F12.965127
F0.048375882
tp679
Rp680
ag4
(F12.964913
F0.048262381
tp681
Rp682
ag4
(F12.964705
F0.048151572
tp683
Rp684
ag4
(F12.9645
F0.048041917
tp685
Rp686
ag4
(F12.964296
F0.047932262
tp687
Rp688
ag4
(F12.964091
F0.047822606
tp689
Rp690
ag4
(F12.963886
F0.047712951
tp691
Rp692
ag4
(F12.963685
F0.047604554
tp693
Rp694
ag4
(F12.963485
F0.047496634
tp695
Rp696
ag4
(F12.963285
F0.047388715
tp697
Rp698
ag4
(F12.963084
F0.047280795
tp699
Rp700
ag4
(F12.962884
F0.047172876
tp701
Rp702
ag4
(F12.962684
F0.047064956
tp703
Rp704
ag4
(F12.962483
F0.046957036
tp705
Rp706
ag4
(F12.962282
F0.046849117
tp707
Rp708
ag4
(F12.962081
F0.046741197
tp709
Rp710
ag4
(F12.96188
F0.046633278
tp711
Rp712
ag4
(F12.96168
F0.046527371
tp713
Rp714
ag4
(F12.961481
F0.046422049
tp715
Rp716
ag4
(F12.961282
F0.046316727
tp717
Rp718
ag4
(F12.961082
F0.046211405
tp719
Rp720
ag4
(F12.960883
F0.046106083
tp721
Rp722
ag4
(F12.960685
F0.046002995
tp723
Rp724
ag4
(F12.960488
F0.045900465
tp725
Rp726
ag4
(F12.960291
F0.045797935
tp727
Rp728
ag4
(F12.960094
F0.045695406
tp729
Rp730
ag4
(F12.959897
F0.045592876
tp731
Rp732
ag4
(F12.9597
F0.045490346
tp733
Rp734
ag4
(F12.959503
F0.045387817
tp735
Rp736
ag4
(F12.959306
F0.045285287
tp737
Rp738
ag4
(F12.959109
F0.045182757
tp739
Rp740
ag4
(F12.958912
F0.045080227
tp741
Rp742
ag4
(F12.958717
F0.044978654
tp743
Rp744
ag4
(F12.958522
F0.044877249
tp745
Rp746
ag4
(F12.958327
F0.044775844
tp747
Rp748
ag4
(F12.958132
F0.044674439
tp749
Rp750
ag4
(F12.957938
F0.044573034
tp751
Rp752
ag4
(F12.957752
F0.044475078
tp753
Rp754
ag4
(F12.957568
F0.044377614
tp755
Rp756
ag4
(F12.957384
F0.044280151
tp757
Rp758
ag4
(F12.9572
F0.044182688
tp759
Rp760
ag4
(F12.957016
F0.044085224
tp761
Rp762
ag4
(F12.956831
F0.043987761
tp763
Rp764
ag4
(F12.956647
F0.043890298
tp765
Rp766
ag4
(F12.956462
F0.043792834
tp767
Rp768
ag4
(F12.956277
F0.043695371
tp769
Rp770
ag4
(F12.956092
F0.043597908
tp771
Rp772
ag4
(F12.955908
F0.043500444
tp773
Rp774
ag4
(F12.955723
F0.043402981
tp775
Rp776
ag4
(F12.955538
F0.043305518
tp777
Rp778
ag4
(F12.955353
F0.043208054
tp779
Rp780
ag4
(F12.955168
F0.043110591
tp781
Rp782
ag4
(F12.954991
F0.043017325
tp783
Rp784
ag4
(F12.954814
F0.042924281
tp785
Rp786
ag4
(F12.954637
F0.042831236
tp787
Rp788
ag4
(F12.954459
F0.042738191
tp789
Rp790
ag4
(F12.954282
F0.042645147
tp791
Rp792
ag4
(F12.954105
F0.042552528
tp793
Rp794
ag4
(F12.953928
F0.04245992
tp795
Rp796
ag4
(F12.953751
F0.042367312
tp797
Rp798
ag4
(F12.953574
F0.042274703
tp799
Rp800
ag4
(F12.953397
F0.042182095
tp801
Rp802
ag4
(F12.95322
F0.042089487
tp803
Rp804
ag4
(F12.953044
F0.041996879
tp805
Rp806
ag4
(F12.952868
F0.041904271
tp807
Rp808
ag4
(F12.952691
F0.041811663
tp809
Rp810
ag4
(F12.952515
F0.041719117
tp811
Rp812
ag4
(F12.952339
F0.041629011
tp813
Rp814
ag4
(F12.952164
F0.041538905
tp815
Rp816
ag4
(F12.951988
F0.041448798
tp817
Rp818
ag4
(F12.951813
F0.041358692
tp819
Rp820
ag4
(F12.951637
F0.041268691
tp821
Rp822
ag4
(F12.951463
F0.041180681
tp823
Rp824
ag4
(F12.951289
F0.041092671
tp825
Rp826
ag4
(F12.951115
F0.041004661
tp827
Rp828
ag4
(F12.950941
F0.040916652
tp829
Rp830
ag4
(F12.950767
F0.040828642
tp831
Rp832
ag4
(F12.950594
F0.040740632
tp833
Rp834
ag4
(F12.95042
F0.040652623
tp835
Rp836
ag4
(F12.950247
F0.040564613
tp837
Rp838
ag4
(F12.950074
F0.040476603
tp839
Rp840
ag4
(F12.9499
F0.040388648
tp841
Rp842
ag4
(F12.949728
F0.040301185
tp843
Rp844
ag4
(F12.949555
F0.040213722
tp845
Rp846
ag4
(F12.949383
F0.040126259
tp847
Rp848
ag4
(F12.94921
F0.040038796
tp849
Rp850
ag4
(F12.949039
F0.039951815
tp851
Rp852
ag4
(F12.948877
F0.039868211
tp853
Rp854
ag4
(F12.948714
F0.039784608
tp855
Rp856
ag4
(F12.948551
F0.039701004
tp857
Rp858
ag4
(F12.948389
F0.0396174
tp859
Rp860
ag4
(F12.948226
F0.039533797
tp861
Rp862
ag4
(F12.948065
F0.039450194
tp863
Rp864
ag4
(F12.947903
F0.039366591
tp865
Rp866
ag4
(F12.947741
F0.039282988
tp867
Rp868
ag4
(F12.947579
F0.039199385
tp869
Rp870
ag4
(F12.947417
F0.039115782
tp871
Rp872
ag4
(F12.947256
F0.039032179
tp873
Rp874
ag4
(F12.947094
F0.038948576
tp875
Rp876
ag4
(F12.946932
F0.038864973
tp877
Rp878
ag4
(F12.94677
F0.03878137
tp879
Rp880
ag4
(F12.946609
F0.038698307
tp881
Rp882
ag4
(F12.946449
F0.038617406
tp883
Rp884
ag4
(F12.946288
F0.038536506
tp885
Rp886
ag4
(F12.946128
F0.038455605
tp887
Rp888
ag4
(F12.945968
F0.038374705
tp889
Rp890
ag4
(F12.945808
F0.038294135
tp891
Rp892
ag4
(F12.945648
F0.038214702
tp893
Rp894
ag4
(F12.945489
F0.03813527
tp895
Rp896
ag4
(F12.945329
F0.038055838
tp897
Rp898
ag4
(F12.94517
F0.037976406
tp899
Rp900
ag4
(F12.94501
F0.037896974
tp901
Rp902
ag4
(F12.944852
F0.037817541
tp903
Rp904
ag4
(F12.944693
F0.037738109
tp905
Rp906
ag4
(F12.944534
F0.037658677
tp907
Rp908
ag4
(F12.944376
F0.037579245
tp909
Rp910
ag4
(F12.944217
F0.037499938
tp911
Rp912
ag4
(F12.944058
F0.037420963
tp913
Rp914
ag4
(F12.943899
F0.037341988
tp915
Rp916
ag4
(F12.943741
F0.037263012
tp917
Rp918
ag4
(F12.943582
F0.037184037
tp919
Rp920
ag4
(F12.943427
F0.037106107
tp921
Rp922
ag4
(F12.943279
F0.037030617
tp923
Rp924
ag4
(F12.943132
F0.036955128
tp925
Rp926
ag4
(F12.942985
F0.036879638
tp927
Rp928
ag4
(F12.942838
F0.036804148
tp929
Rp930
ag4
(F12.94269
F0.036728658
tp931
Rp932
ag4
(F12.942542
F0.036653168
tp933
Rp934
ag4
(F12.942394
F0.036577677
tp935
Rp936
ag4
(F12.942246
F0.036502187
tp937
Rp938
ag4
(F12.942098
F0.036426696
tp939
Rp940
ag4
(F12.94195
F0.036351206
tp941
Rp942
ag4
(F12.941802
F0.036275716
tp943
Rp944
ag4
(F12.941654
F0.036200227
tp945
Rp946
ag4
(F12.941506
F0.036124737
tp947
Rp948
ag4
(F12.941358
F0.036049247
tp949
Rp950
ag4
(F12.941211
F0.035974507
tp951
Rp952
ag4
(F12.941065
F0.035901016
tp953
Rp954
ag4
(F12.940918
F0.035827524
tp955
Rp956
ag4
(F12.940772
F0.035754033
tp957
Rp958
ag4
(F12.940625
F0.035680542
tp959
Rp960
ag4
(F12.940479
F0.035607766
tp961
Rp962
ag4
(F12.940333
F0.035536061
tp963
Rp964
ag4
(F12.940188
F0.035464356
tp965
Rp966
ag4
(F12.940042
F0.035392652
tp967
Rp968
ag4
(F12.939896
F0.035320947
tp969
Rp970
ag4
(F12.939751
F0.035249243
tp971
Rp972
ag4
(F12.939605
F0.035177537
tp973
Rp974
ag4
(F12.939459
F0.035105832
tp975
Rp976
ag4
(F12.939314
F0.035034127
tp977
Rp978
ag4
(F12.939168
F0.034962421
tp979
Rp980
ag4
(F12.939022
F0.034890716
tp981
Rp982
ag4
(F12.938877
F0.034819012
tp983
Rp984
ag4
(F12.938731
F0.034747307
tp985
Rp986
ag4
(F12.938585
F0.034675603
tp987
Rp988
ag4
(F12.938439
F0.034603898
tp989
Rp990
ag4
(F12.938297
F0.034533707
tp991
Rp992
ag4
(F12.938157
F0.034465189
tp993
Rp994
ag4
(F12.938018
F0.03439667
tp995
Rp996
ag4
(F12.937878
F0.034328152
tp997
Rp998
ag4
(F12.937738
F0.034259634
tp999
Rp1000
ag4
(F12.937599
F0.034191328
tp1001
Rp1002
ag4
(F12.937461
F0.034123236
tp1003
Rp1004
ag4
(F12.937322
F0.034055144
tp1005
Rp1006
ag4
(F12.937183
F0.033987051
tp1007
Rp1008
ag4
(F12.937044
F0.033918959
tp1009
Rp1010
ag4
(F12.936905
F0.033850867
tp1011
Rp1012
ag4
(F12.936767
F0.033782774
tp1013
Rp1014
ag4
(F12.936628
F0.033714682
tp1015
Rp1016
ag4
(F12.936489
F0.03364659
tp1017
Rp1018
ag4
(F12.93635
F0.033578497
tp1019
Rp1020
ag4
(F12.936212
F0.033510736
tp1021
Rp1022
ag4
(F12.936074
F0.033443245
tp1023
Rp1024
ag4
(F12.935936
F0.033375754
tp1025
Rp1026
ag4
(F12.935798
F0.033308263
tp1027
Rp1028
ag4
(F12.93566
F0.033240772
tp1029
Rp1030
ag4
(F12.935525
F0.0331749
tp1031
Rp1032
ag4
(F12.935393
F0.033110224
tp1033
Rp1034
ag4
(F12.935262
F0.033045549
tp1035
Rp1036
ag4
(F12.93513
F0.032980873
tp1037
Rp1038
ag4
(F12.934998
F0.032916197
tp1039
Rp1040
ag4
(F12.934865
F0.032851522
tp1041
Rp1042
ag4
(F12.934733
F0.032786845
tp1043
Rp1044
ag4
(F12.9346
F0.032722169
tp1045
Rp1046
ag4
(F12.934467
F0.032657493
tp1047
Rp1048
ag4
(F12.934335
F0.032592816
tp1049
Rp1050
ag4
(F12.934202
F0.032528141
tp1051
Rp1052
ag4
(F12.93407
F0.032463465
tp1053
Rp1054
ag4
(F12.933937
F0.03239879
tp1055
Rp1056
ag4
(F12.933804
F0.032334114
tp1057
Rp1058
ag4
(F12.933672
F0.032269438
tp1059
Rp1060
ag4
(F12.93354
F0.032205627
tp1061
Rp1062
ag4
(F12.933409
F0.032142282
tp1063
Rp1064
ag4
(F12.933278
F0.032078936
tp1065
Rp1066
ag4
(F12.933147
F0.03201559
tp1067
Rp1068
ag4
(F12.933015
F0.031952245
tp1069
Rp1070
ag4
(F12.932885
F0.031890192
tp1071
Rp1072
ag4
(F12.932754
F0.031828763
tp1073
Rp1074
ag4
(F12.932624
F0.031767333
tp1075
Rp1076
ag4
(F12.932494
F0.031705904
tp1077
Rp1078
ag4
(F12.932363
F0.031644475
tp1079
Rp1080
ag4
(F12.932233
F0.031583045
tp1081
Rp1082
ag4
(F12.932103
F0.031521614
tp1083
Rp1084
ag4
(F12.931972
F0.031460184
tp1085
Rp1086
ag4
(F12.931842
F0.031398754
tp1087
Rp1088
ag4
(F12.931712
F0.031337324
tp1089
Rp1090
ag4
(F12.931581
F0.031275893
tp1091
Rp1092
ag4
(F12.931451
F0.031214463
tp1093
Rp1094
ag4
(F12.931321
F0.031153033
tp1095
Rp1096
ag4
(F12.93119
F0.031091603
tp1097
Rp1098
ag4
(F12.93106
F0.031030173
tp1099
Rp1100
ag4
(F12.930934
F0.03097011
tp1101
Rp1102
ag4
(F12.93081
F0.030910504
tp1103
Rp1104
ag4
(F12.930686
F0.030850898
tp1105
Rp1106
ag4
(F12.930562
F0.030791292
tp1107
Rp1108
ag4
(F12.930437
F0.030731686
tp1109
Rp1110
ag4
(F12.930317
F0.030673087
tp1111
Rp1112
ag4
(F12.930197
F0.03061478
tp1113
Rp1114
ag4
(F12.930077
F0.030556473
tp1115
Rp1116
ag4
(F12.929958
F0.030498166
tp1117
Rp1118
ag4
(F12.929838
F0.030439859
tp1119
Rp1120
ag4
(F12.929718
F0.030381552
tp1121
Rp1122
ag4
(F12.929598
F0.030323245
tp1123
Rp1124
ag4
(F12.929477
F0.030264938
tp1125
Rp1126
ag4
(F12.929357
F0.030206631
tp1127
Rp1128
ag4
(F12.929236
F0.030148324
tp1129
Rp1130
ag4
(F12.929117
F0.030090017
tp1131
Rp1132
ag4
(F12.928997
F0.03003171
tp1133
Rp1134
ag4
(F12.928877
F0.029973403
tp1135
Rp1136
ag4
(F12.928758
F0.029915096
tp1137
Rp1138
ag4
(F12.928638
F0.029856789
tp1139
Rp1140
ag4
(F12.928519
F0.029800196
tp1141
Rp1142
ag4
(F12.9284
F0.029743905
tp1143
Rp1144
ag4
(F12.928282
F0.029687614
tp1145
Rp1146
ag4
(F12.928163
F0.029631323
tp1147
Rp1148
ag4
(F12.928044
F0.029575032
tp1149
Rp1150
ag4
(F12.927926
F0.029519519
tp1151
Rp1152
ag4
(F12.927808
F0.029464117
tp1153
Rp1154
ag4
(F12.927689
F0.029408715
tp1155
Rp1156
ag4
(F12.927571
F0.029353313
tp1157
Rp1158
ag4
(F12.927453
F0.029297911
tp1159
Rp1160
ag4
(F12.927335
F0.029242509
tp1161
Rp1162
ag4
(F12.927217
F0.029187107
tp1163
Rp1164
ag4
(F12.927099
F0.029131705
tp1165
Rp1166
ag4
(F12.926981
F0.029076303
tp1167
Rp1168
ag4
(F12.926863
F0.029020901
tp1169
Rp1170
ag4
(F12.926745
F0.028965499
tp1171
Rp1172
ag4
(F12.926627
F0.028910097
tp1173
Rp1174
ag4
(F12.926509
F0.028854694
tp1175
Rp1176
ag4
(F12.926391
F0.028799292
tp1177
Rp1178
ag4
(F12.926272
F0.02874389
tp1179
Rp1180
ag4
(F12.926159
F0.028690484
tp1181
Rp1182
ag4
(F12.926045
F0.028637183
tp1183
Rp1184
ag4
(F12.925932
F0.028583883
tp1185
Rp1186
ag4
(F12.925818
F0.028530583
tp1187
Rp1188
ag4
(F12.925705
F0.028477282
tp1189
Rp1190
ag4
(F12.925593
F0.028424686
tp1191
Rp1192
ag4
(F12.925481
F0.028372108
tp1193
Rp1194
ag4
(F12.925369
F0.02831953
tp1195
Rp1196
ag4
(F12.925257
F0.028266952
tp1197
Rp1198
ag4
(F12.925145
F0.028214375
tp1199
Rp1200
ag4
(F12.925033
F0.028161797
tp1201
Rp1202
ag4
(F12.924921
F0.02810922
tp1203
Rp1204
ag4
(F12.924809
F0.028056642
tp1205
Rp1206
ag4
(F12.924697
F0.028004065
tp1207
Rp1208
ag4
(F12.924585
F0.027951487
tp1209
Rp1210
ag4
(F12.924473
F0.027898909
tp1211
Rp1212
ag4
(F12.924361
F0.027846332
tp1213
Rp1214
ag4
(F12.924249
F0.027793754
tp1215
Rp1216
ag4
(F12.924138
F0.027741177
tp1217
Rp1218
ag4
(F12.924026
F0.027688696
tp1219
Rp1220
ag4
(F12.923918
F0.02763805
tp1221
Rp1222
ag4
(F12.92381
F0.027587404
tp1223
Rp1224
ag4
(F12.923701
F0.027536758
tp1225
Rp1226
ag4
(F12.923593
F0.027486112
tp1227
Rp1228
ag4
(F12.923485
F0.02743552
tp1229
Rp1230
ag4
(F12.923379
F0.027385596
tp1231
Rp1232
ag4
(F12.923272
F0.027335672
tp1233
Rp1234
ag4
(F12.923166
F0.027285748
tp1235
Rp1236
ag4
(F12.923059
F0.027235824
tp1237
Rp1238
ag4
(F12.922952
F0.0271859
tp1239
Rp1240
ag4
(F12.922846
F0.027135975
tp1241
Rp1242
ag4
(F12.922739
F0.027086051
tp1243
Rp1244
ag4
(F12.922633
F0.027036127
tp1245
Rp1246
ag4
(F12.922526
F0.026986203
tp1247
Rp1248
ag4
(F12.922419
F0.026936279
tp1249
Rp1250
ag4
(F12.922313
F0.026886355
tp1251
Rp1252
ag4
(F12.922206
F0.026836431
tp1253
Rp1254
ag4
(F12.9221
F0.026786507
tp1255
Rp1256
ag4
(F12.921993
F0.026736582
tp1257
Rp1258
ag4
(F12.921887
F0.026686907
tp1259
Rp1260
ag4
(F12.921782
F0.026638639
tp1261
Rp1262
ag4
(F12.921677
F0.02659037
tp1263
Rp1264
ag4
(F12.921572
F0.026542102
tp1265
Rp1266
ag4
(F12.921467
F0.026493834
tp1267
Rp1268
ag4
(F12.921362
F0.026445723
tp1269
Rp1270
ag4
(F12.921257
F0.026398354
tp1271
Rp1272
ag4
(F12.921153
F0.026350985
tp1273
Rp1274
ag4
(F12.921049
F0.026303616
tp1275
Rp1276
ag4
(F12.920945
F0.026256246
tp1277
Rp1278
ag4
(F12.92084
F0.026208877
tp1279
Rp1280
ag4
(F12.920735
F0.026161508
tp1281
Rp1282
ag4
(F12.92063
F0.02611414
tp1283
Rp1284
ag4
(F12.920525
F0.026066771
tp1285
Rp1286
ag4
(F12.92042
F0.026019402
tp1287
Rp1288
ag4
(F12.920315
F0.025972033
tp1289
Rp1290
ag4
(F12.920211
F0.025924664
tp1291
Rp1292
ag4
(F12.920107
F0.025877295
tp1293
Rp1294
ag4
(F12.920002
F0.025829926
tp1295
Rp1296
ag4
(F12.919898
F0.025782558
tp1297
Rp1298
ag4
(F12.919794
F0.025735486
tp1299
Rp1300
ag4
(F12.919692
F0.025689305
tp1301
Rp1302
ag4
(F12.91959
F0.025643124
tp1303
Rp1304
ag4
(F12.919488
F0.025596943
tp1305
Rp1306
ag4
(F12.919386
F0.025550762
tp1307
Rp1308
ag4
(F12.919285
F0.025504908
tp1309
Rp1310
ag4
(F12.919185
F0.025459916
tp1311
Rp1312
ag4
(F12.919086
F0.025414924
tp1313
Rp1314
ag4
(F12.918986
F0.025369932
tp1315
Rp1316
ag4
(F12.918886
F0.02532494
tp1317
Rp1318
ag4
(F12.918787
F0.025279948
tp1319
Rp1320
ag4
(F12.918688
F0.025234955
tp1321
Rp1322
ag4
(F12.918589
F0.025189963
tp1323
Rp1324
ag4
(F12.91849
F0.025144971
tp1325
Rp1326
ag4
(F12.918391
F0.025099979
tp1327
Rp1328
ag4
(F12.918292
F0.025054987
tp1329
Rp1330
ag4
(F12.918192
F0.025009994
tp1331
Rp1332
ag4
(F12.918093
F0.024965002
tp1333
Rp1334
ag4
(F12.917993
F0.024920009
tp1335
Rp1336
ag4
(F12.917893
F0.024875017
tp1337
Rp1338
ag4
(F12.917794
F0.024830257
tp1339
Rp1340
ag4
(F12.917697
F0.024785928
tp1341
Rp1342
ag4
(F12.9176
F0.0247416
tp1343
Rp1344
ag4
(F12.917502
F0.024697272
tp1345
Rp1346
ag4
(F12.917405
F0.024652943
tp1347
Rp1348
ag4
(F12.917309
F0.02460923
tp1349
Rp1350
ag4
(F12.917214
F0.024566543
tp1351
Rp1352
ag4
(F12.91712
F0.024523857
tp1353
Rp1354
ag4
(F12.917026
F0.02448117
tp1355
Rp1356
ag4
(F12.916931
F0.024438483
tp1357
Rp1358
ag4
(F12.916837
F0.024395796
tp1359
Rp1360
ag4
(F12.916744
F0.024353109
tp1361
Rp1362
ag4
(F12.91665
F0.024310422
tp1363
Rp1364
ag4
(F12.916557
F0.024267735
tp1365
Rp1366
ag4
(F12.916463
F0.024225048
tp1367
Rp1368
ag4
(F12.91637
F0.024182361
tp1369
Rp1370
ag4
(F12.916276
F0.024139673
tp1371
Rp1372
ag4
(F12.916183
F0.024096986
tp1373
Rp1374
ag4
(F12.916089
F0.024054299
tp1375
Rp1376
ag4
(F12.915995
F0.024011611
tp1377
Rp1378
ag4
(F12.915902
F0.02396893
tp1379
Rp1380
ag4
(F12.915807
F0.023926256
tp1381
Rp1382
ag4
(F12.915713
F0.023883582
tp1383
Rp1384
ag4
(F12.915619
F0.023840908
tp1385
Rp1386
ag4
(F12.915524
F0.023798235
tp1387
Rp1388
ag4
(F12.915431
F0.023756584
tp1389
Rp1390
ag4
(F12.915339
F0.023716066
tp1391
Rp1392
ag4
(F12.915247
F0.023675547
tp1393
Rp1394
ag4
(F12.915155
F0.023635028
tp1395
Rp1396
ag4
(F12.915063
F0.023594509
tp1397
Rp1398
ag4
(F12.914971
F0.02355399
tp1399
Rp1400
ag4
(F12.914878
F0.023513471
tp1401
Rp1402
ag4
(F12.914785
F0.023472952
tp1403
Rp1404
ag4
(F12.914692
F0.023432433
tp1405
Rp1406
ag4
(F12.9146
F0.023391914
tp1407
Rp1408
ag4
(F12.914507
F0.023351395
tp1409
Rp1410
ag4
(F12.914415
F0.023310876
tp1411
Rp1412
ag4
(F12.914323
F0.023270357
tp1413
Rp1414
ag4
(F12.914231
F0.023229838
tp1415
Rp1416
ag4
(F12.914139
F0.023189319
tp1417
Rp1418
ag4
(F12.914047
F0.023148801
tp1419
Rp1420
ag4
(F12.913954
F0.023108282
tp1421
Rp1422
ag4
(F12.913861
F0.023067763
tp1423
Rp1424
ag4
(F12.913768
F0.023027244
tp1425
Rp1426
ag4
(F12.913676
F0.022986725
tp1427
Rp1428
ag4
(F12.913586
F0.022946993
tp1429
Rp1430
ag4
(F12.9135
F0.022907842
tp1431
Rp1432
ag4
(F12.913413
F0.022868691
tp1433
Rp1434
ag4
(F12.913326
F0.02282954
tp1435
Rp1436
ag4
(F12.91324
F0.022790388
tp1437
Rp1438
ag4
(F12.913155
F0.022751668
tp1439
Rp1440
ag4
(F12.913071
F0.022713234
tp1441
Rp1442
ag4
(F12.912988
F0.0226748
tp1443
Rp1444
ag4
(F12.912904
F0.022636366
tp1445
Rp1446
ag4
(F12.912821
F0.022597933
tp1447
Rp1448
ag4
(F12.912737
F0.022559499
tp1449
Rp1450
ag4
(F12.912653
F0.022521065
tp1451
Rp1452
ag4
(F12.91257
F0.022482631
tp1453
Rp1454
ag4
(F12.912486
F0.022444198
tp1455
Rp1456
ag4
(F12.912403
F0.022405764
tp1457
Rp1458
ag4
(F12.912319
F0.02236733
tp1459
Rp1460
ag4
(F12.912236
F0.022328896
tp1461
Rp1462
ag4
(F12.912152
F0.022290463
tp1463
Rp1464
ag4
(F12.912068
F0.022252029
tp1465
Rp1466
ag4
(F12.911985
F0.022213595
tp1467
Rp1468
ag4
(F12.911901
F0.02217547
tp1469
Rp1470
ag4
(F12.911816
F0.022137493
tp1471
Rp1472
ag4
(F12.911732
F0.022099517
tp1473
Rp1474
ag4
(F12.911648
F0.02206154
tp1475
Rp1476
ag4
(F12.911563
F0.022023563
tp1477
Rp1478
ag4
(F12.911478
F0.021986633
tp1479
Rp1480
ag4
(F12.911392
F0.021950152
tp1481
Rp1482
ag4
(F12.911306
F0.02191367
tp1483
Rp1484
ag4
(F12.91122
F0.021877188
tp1485
Rp1486
ag4
(F12.911134
F0.021840707
tp1487
Rp1488
ag4
(F12.911049
F0.021804225
tp1489
Rp1490
ag4
(F12.910963
F0.021767743
tp1491
Rp1492
ag4
(F12.910877
F0.021731262
tp1493
Rp1494
ag4
(F12.910791
F0.02169478
tp1495
Rp1496
ag4
(F12.910705
F0.021658299
tp1497
Rp1498
ag4
(F12.910619
F0.021621817
tp1499
Rp1500
ag4
(F12.910533
F0.021585335
tp1501
Rp1502
ag4
(F12.910447
F0.021548854
tp1503
Rp1504
ag4
(F12.910362
F0.021512372
tp1505
Rp1506
ag4
(F12.910276
F0.02147589
tp1507
Rp1508
ag4
(F12.91019
F0.021439409
tp1509
Rp1510
ag4
(F12.910104
F0.021402927
tp1511
Rp1512
ag4
(F12.910018
F0.021366445
tp1513
Rp1514
ag4
(F12.909932
F0.021329964
tp1515
Rp1516
ag4
(F12.909846
F0.021293482
tp1517
Rp1518
ag4
(F12.909765
F0.021258119
tp1519
Rp1520
ag4
(F12.909686
F0.021223035
tp1521
Rp1522
ag4
(F12.909606
F0.021187951
tp1523
Rp1524
ag4
(F12.909526
F0.021152867
tp1525
Rp1526
ag4
(F12.909446
F0.021117783
tp1527
Rp1528
ag4
(F12.909368
F0.0210831
tp1529
Rp1530
ag4
(F12.909291
F0.021048502
tp1531
Rp1532
ag4
(F12.909214
F0.021013905
tp1533
Rp1534
ag4
(F12.909136
F0.020979307
tp1535
Rp1536
ag4
(F12.909059
F0.020944709
tp1537
Rp1538
ag4
(F12.908981
F0.020910111
tp1539
Rp1540
ag4
(F12.908904
F0.020875513
tp1541
Rp1542
ag4
(F12.908826
F0.020840915
tp1543
Rp1544
ag4
(F12.908749
F0.020806317
tp1545
Rp1546
ag4
(F12.908671
F0.020771719
tp1547
Rp1548
ag4
(F12.908594
F0.020737122
tp1549
Rp1550
ag4
(F12.908517
F0.020702524
tp1551
Rp1552
ag4
(F12.908439
F0.020667926
tp1553
Rp1554
ag4
(F12.908362
F0.020633329
tp1555
Rp1556
ag4
(F12.908284
F0.020598731
tp1557
Rp1558
ag4
(F12.908207
F0.020564413
tp1559
Rp1560
ag4
(F12.908129
F0.020530125
tp1561
Rp1562
ag4
(F12.908052
F0.020495838
tp1563
Rp1564
ag4
(F12.907974
F0.020461551
tp1565
Rp1566
ag4
(F12.907897
F0.020427264
tp1567
Rp1568
ag4
(F12.907821
F0.020394321
tp1569
Rp1570
ag4
(F12.907745
F0.020361488
tp1571
Rp1572
ag4
(F12.907669
F0.020328654
tp1573
Rp1574
ag4
(F12.907593
F0.020295821
tp1575
Rp1576
ag4
(F12.907517
F0.020262987
tp1577
Rp1578
ag4
(F12.907441
F0.020230154
tp1579
Rp1580
ag4
(F12.907364
F0.02019732
tp1581
Rp1582
ag4
(F12.907287
F0.020164487
tp1583
Rp1584
ag4
(F12.907211
F0.020131653
tp1585
Rp1586
ag4
(F12.907134
F0.02009882
tp1587
Rp1588
ag4
(F12.907058
F0.020065986
tp1589
Rp1590
ag4
(F12.906982
F0.020033153
tp1591
Rp1592
ag4
(F12.906906
F0.020000319
tp1593
Rp1594
ag4
(F12.90683
F0.019967486
tp1595
Rp1596
ag4
(F12.906754
F0.019934652
tp1597
Rp1598
ag4
(F12.906678
F0.019901819
tp1599
Rp1600
ag4
(F12.906601
F0.019868985
tp1601
Rp1602
ag4
(F12.906524
F0.019836152
tp1603
Rp1604
ag4
(F12.906448
F0.019803318
tp1605
Rp1606
ag4
(F12.906371
F0.019770508
tp1607
Rp1608
ag4
(F12.906296
F0.019738596
tp1609
Rp1610
ag4
(F12.906221
F0.019706684
tp1611
Rp1612
ag4
(F12.906146
F0.019674772
tp1613
Rp1614
ag4
(F12.90607
F0.01964286
tp1615
Rp1616
ag4
(F12.905995
F0.019610987
tp1617
Rp1618
ag4
(F12.90592
F0.019579866
tp1619
Rp1620
ag4
(F12.905845
F0.019548745
tp1621
Rp1622
ag4
(F12.90577
F0.019517624
tp1623
Rp1624
ag4
(F12.905695
F0.019486503
tp1625
Rp1626
ag4
(F12.90562
F0.019455382
tp1627
Rp1628
ag4
(F12.905544
F0.019424262
tp1629
Rp1630
ag4
(F12.905469
F0.019393141
tp1631
Rp1632
ag4
(F12.905394
F0.019362021
tp1633
Rp1634
ag4
(F12.905319
F0.0193309
tp1635
Rp1636
ag4
(F12.905244
F0.019299779
tp1637
Rp1638
ag4
(F12.905169
F0.019268659
tp1639
Rp1640
ag4
(F12.905094
F0.019237538
tp1641
Rp1642
ag4
(F12.905018
F0.019206417
tp1643
Rp1644
ag4
(F12.904943
F0.019175296
tp1645
Rp1646
ag4
(F12.904868
F0.019144175
tp1647
Rp1648
ag4
(F12.904793
F0.019113054
tp1649
Rp1650
ag4
(F12.904718
F0.019081934
tp1651
Rp1652
ag4
(F12.904643
F0.019050813
tp1653
Rp1654
ag4
(F12.904568
F0.019019692
tp1655
Rp1656
ag4
(F12.904493
F0.018988768
tp1657
Rp1658
ag4
(F12.904422
F0.018958956
tp1659
Rp1660
ag4
(F12.90435
F0.018929143
tp1661
Rp1662
ag4
(F12.904279
F0.018899331
tp1663
Rp1664
ag4
(F12.904208
F0.018869518
tp1665
Rp1666
ag4
(F12.904137
F0.018839755
tp1667
Rp1668
ag4
(F12.904066
F0.018810227
tp1669
Rp1670
ag4
(F12.903996
F0.018780698
tp1671
Rp1672
ag4
(F12.903925
F0.01875117
tp1673
Rp1674
ag4
(F12.903854
F0.018721641
tp1675
Rp1676
ag4
(F12.903784
F0.018692112
tp1677
Rp1678
ag4
(F12.903713
F0.018662583
tp1679
Rp1680
ag4
(F12.903643
F0.018633054
tp1681
Rp1682
ag4
(F12.903572
F0.018603525
tp1683
Rp1684
ag4
(F12.903502
F0.018573996
tp1685
Rp1686
ag4
(F12.903431
F0.018544467
tp1687
Rp1688
ag4
(F12.903361
F0.018514938
tp1689
Rp1690
ag4
(F12.90329
F0.018485409
tp1691
Rp1692
ag4
(F12.90322
F0.01845588
tp1693
Rp1694
ag4
(F12.903149
F0.018426351
tp1695
Rp1696
ag4
(F12.903079
F0.018396835
tp1697
Rp1698
ag4
(F12.903009
F0.018367355
tp1699
Rp1700
ag4
(F12.902939
F0.018337875
tp1701
Rp1702
ag4
(F12.902869
F0.018308396
tp1703
Rp1704
ag4
(F12.9028
F0.018278916
tp1705
Rp1706
ag4
(F12.902731
F0.018249844
tp1707
Rp1708
ag4
(F12.902664
F0.018221845
tp1709
Rp1710
ag4
(F12.902597
F0.018193846
tp1711
Rp1712
ag4
(F12.902531
F0.018165847
tp1713
Rp1714
ag4
(F12.902464
F0.018137848
tp1715
Rp1716
ag4
(F12.902397
F0.01810985
tp1717
Rp1718
ag4
(F12.902331
F0.018081851
tp1719
Rp1720
ag4
(F12.902265
F0.018053852
tp1721
Rp1722
ag4
(F12.902199
F0.018025853
tp1723
Rp1724
ag4
(F12.902134
F0.017997854
tp1725
Rp1726
ag4
(F12.902068
F0.017969856
tp1727
Rp1728
ag4
(F12.902002
F0.017941857
tp1729
Rp1730
ag4
(F12.901936
F0.017913859
tp1731
Rp1732
ag4
(F12.90187
F0.01788586
tp1733
Rp1734
ag4
(F12.901804
F0.017857862
tp1735
Rp1736
ag4
(F12.901738
F0.017829863
tp1737
Rp1738
ag4
(F12.901672
F0.017801864
tp1739
Rp1740
ag4
(F12.901606
F0.017773865
tp1741
Rp1742
ag4
(F12.90154
F0.017745867
tp1743
Rp1744
ag4
(F12.901474
F0.017717868
tp1745
Rp1746
ag4
(F12.901408
F0.017689958
tp1747
Rp1748
ag4
(F12.901342
F0.017662197
tp1749
Rp1750
ag4
(F12.901276
F0.017634435
tp1751
Rp1752
ag4
(F12.90121
F0.017606674
tp1753
Rp1754
ag4
(F12.901144
F0.017578912
tp1755
Rp1756
ag4
(F12.901079
F0.017551634
tp1757
Rp1758
ag4
(F12.901014
F0.017525082
tp1759
Rp1760
ag4
(F12.900948
F0.017498529
tp1761
Rp1762
ag4
(F12.900883
F0.017471977
tp1763
Rp1764
ag4
(F12.900818
F0.017445424
tp1765
Rp1766
ag4
(F12.900753
F0.017418872
tp1767
Rp1768
ag4
(F12.900688
F0.017392319
tp1769
Rp1770
ag4
(F12.900623
F0.017365767
tp1771
Rp1772
ag4
(F12.900557
F0.017339214
tp1773
Rp1774
ag4
(F12.900492
F0.017312662
tp1775
Rp1776
ag4
(F12.900427
F0.017286109
tp1777
Rp1778
ag4
(F12.900363
F0.017259557
tp1779
Rp1780
ag4
(F12.900299
F0.017233005
tp1781
Rp1782
ag4
(F12.900234
F0.017206453
tp1783
Rp1784
ag4
(F12.90017
F0.017179901
tp1785
Rp1786
ag4
(F12.900105
F0.017153348
tp1787
Rp1788
ag4
(F12.90004
F0.017126796
tp1789
Rp1790
ag4
(F12.899975
F0.017100243
tp1791
Rp1792
ag4
(F12.899909
F0.017073691
tp1793
Rp1794
ag4
(F12.899844
F0.017047138
tp1795
Rp1796
ag4
(F12.899779
F0.017020736
tp1797
Rp1798
ag4
(F12.899715
F0.016994484
tp1799
Rp1800
ag4
(F12.899651
F0.016968232
tp1801
Rp1802
ag4
(F12.899586
F0.01694198
tp1803
Rp1804
ag4
(F12.899522
F0.016915729
tp1805
Rp1806
ag4
(F12.899459
F0.016890043
tp1807
Rp1808
ag4
(F12.899399
F0.01686487
tp1809
Rp1810
ag4
(F12.899338
F0.016839696
tp1811
Rp1812
ag4
(F12.899278
F0.016814523
tp1813
Rp1814
ag4
(F12.899217
F0.01678935
tp1815
Rp1816
ag4
(F12.899157
F0.016764177
tp1817
Rp1818
ag4
(F12.899096
F0.016739004
tp1819
Rp1820
ag4
(F12.899035
F0.01671383
tp1821
Rp1822
ag4
(F12.898975
F0.016688657
tp1823
Rp1824
ag4
(F12.898914
F0.016663484
tp1825
Rp1826
ag4
(F12.898853
F0.016638311
tp1827
Rp1828
ag4
(F12.898792
F0.016613137
tp1829
Rp1830
ag4
(F12.898731
F0.016587964
tp1831
Rp1832
ag4
(F12.898669
F0.016562791
tp1833
Rp1834
ag4
(F12.898608
F0.016537618
tp1835
Rp1836
ag4
(F12.898547
F0.016512444
tp1837
Rp1838
ag4
(F12.898486
F0.016487271
tp1839
Rp1840
ag4
(F12.898426
F0.016462098
tp1841
Rp1842
ag4
(F12.898365
F0.016436925
tp1843
Rp1844
ag4
(F12.898305
F0.016411752
tp1845
Rp1846
ag4
(F12.898244
F0.016386736
tp1847
Rp1848
ag4
(F12.898184
F0.016361816
tp1849
Rp1850
ag4
(F12.898123
F0.016336895
tp1851
Rp1852
ag4
(F12.898062
F0.016311975
tp1853
Rp1854
ag4
(F12.898002
F0.016287054
tp1855
Rp1856
ag4
(F12.897942
F0.016262826
tp1857
Rp1858
ag4
(F12.897882
F0.01623897
tp1859
Rp1860
ag4
(F12.897822
F0.016215113
tp1861
Rp1862
ag4
(F12.897762
F0.016191257
tp1863
Rp1864
ag4
(F12.897702
F0.016167401
tp1865
Rp1866
ag4
(F12.897643
F0.016143545
tp1867
Rp1868
ag4
(F12.897583
F0.016119689
tp1869
Rp1870
ag4
(F12.897523
F0.016095833
tp1871
Rp1872
ag4
(F12.897463
F0.016071977
tp1873
Rp1874
ag4
(F12.897403
F0.016048121
tp1875
Rp1876
ag4
(F12.897344
F0.016024265
tp1877
Rp1878
ag4
(F12.897284
F0.016000409
tp1879
Rp1880
ag4
(F12.897224
F0.015976553
tp1881
Rp1882
ag4
(F12.897164
F0.015952697
tp1883
Rp1884
ag4
(F12.897104
F0.01592884
tp1885
Rp1886
ag4
(F12.897045
F0.015904984
tp1887
Rp1888
ag4
(F12.896985
F0.015881128
tp1889
Rp1890
ag4
(F12.896925
F0.015857271
tp1891
Rp1892
ag4
(F12.896865
F0.015833415
tp1893
Rp1894
ag4
(F12.896805
F0.015809558
tp1895
Rp1896
ag4
(F12.896746
F0.015785781
tp1897
Rp1898
ag4
(F12.896686
F0.01576203
tp1899
Rp1900
ag4
(F12.896626
F0.015738279
tp1901
Rp1902
ag4
(F12.896566
F0.015714528
tp1903
Rp1904
ag4
(F12.896506
F0.015690777
tp1905
Rp1906
ag4
(F12.89645
F0.015667914
tp1907
Rp1908
ag4
(F12.896395
F0.015645308
tp1909
Rp1910
ag4
(F12.89634
F0.015622701
tp1911
Rp1912
ag4
(F12.896284
F0.015600095
tp1913
Rp1914
ag4
(F12.896229
F0.015577489
tp1915
Rp1916
ag4
(F12.896173
F0.015554883
tp1917
Rp1918
ag4
(F12.896117
F0.015532277
tp1919
Rp1920
ag4
(F12.896061
F0.015509671
tp1921
Rp1922
ag4
(F12.896006
F0.015487065
tp1923
Rp1924
ag4
(F12.89595
F0.015464458
tp1925
Rp1926
ag4
(F12.895894
F0.015441852
tp1927
Rp1928
ag4
(F12.895838
F0.015419246
tp1929
Rp1930
ag4
(F12.895782
F0.01539664
tp1931
Rp1932
ag4
(F12.895726
F0.015374034
tp1933
Rp1934
ag4
(F12.89567
F0.015351428
tp1935
Rp1936
ag4
(F12.895614
F0.015328822
tp1937
Rp1938
ag4
(F12.895559
F0.015306215
tp1939
Rp1940
ag4
(F12.895504
F0.015283609
tp1941
Rp1942
ag4
(F12.895449
F0.015261003
tp1943
Rp1944
ag4
(F12.895394
F0.015238397
tp1945
Rp1946
ag4
(F12.895338
F0.015215791
tp1947
Rp1948
ag4
(F12.895282
F0.015193185
tp1949
Rp1950
ag4
(F12.895226
F0.015170579
tp1951
Rp1952
ag4
(F12.89517
F0.015147973
tp1953
Rp1954
ag4
(F12.895114
F0.015125367
tp1955
Rp1956
ag4
(F12.895058
F0.015103704
tp1957
Rp1958
ag4
(F12.895003
F0.015082146
tp1959
Rp1960
ag4
(F12.894948
F0.015060587
tp1961
Rp1962
ag4
(F12.894893
F0.015039029
tp1963
Rp1964
ag4
(F12.894838
F0.01501747
tp1965
Rp1966
ag4
(F12.894783
F0.01499603
tp1967
Rp1968
ag4
(F12.894729
F0.014974598
tp1969
Rp1970
ag4
(F12.894674
F0.014953167
tp1971
Rp1972
ag4
(F12.89462
F0.014931736
tp1973
Rp1974
ag4
(F12.894565
F0.014910305
tp1975
Rp1976
ag4
(F12.89451
F0.014888873
tp1977
Rp1978
ag4
(F12.894455
F0.014867442
tp1979
Rp1980
ag4
(F12.8944
F0.01484601
tp1981
Rp1982
ag4
(F12.894345
F0.014824579
tp1983
Rp1984
ag4
(F12.894289
F0.014803147
tp1985
Rp1986
ag4
(F12.894235
F0.014781716
tp1987
Rp1988
ag4
(F12.89418
F0.014760285
tp1989
Rp1990
ag4
(F12.894126
F0.014738853
tp1991
Rp1992
ag4
(F12.894072
F0.014717422
tp1993
Rp1994
ag4
(F12.894017
F0.014695991
tp1995
Rp1996
asS'fhbar'
p1997
(lp1998
g4
(Fnan
Fnan
tp1999
Rp2000
ag4
(Fnan
Fnan
tp2001
Rp2002
ag4
(Fnan
Fnan
tp2003
Rp2004
ag4
(Fnan
Fnan
tp2005
Rp2006
ag4
(Fnan
Fnan
tp2007
Rp2008
ag4
(Fnan
Fnan
tp2009
Rp2010
ag4
(Fnan
Fnan
tp2011
Rp2012
ag4
(Fnan
Fnan
tp2013
Rp2014
ag4
(Fnan
Fnan
tp2015
Rp2016
ag4
(Fnan
Fnan
tp2017
Rp2018
ag4
(Fnan
Fnan
tp2019
Rp2020
ag4
(Fnan
Fnan
tp2021
Rp2022
ag4
(Fnan
Fnan
tp2023
Rp2024
ag4
(Fnan
Fnan
tp2025
Rp2026
ag4
(Fnan
Fnan
tp2027
Rp2028
ag4
(Fnan
Fnan
tp2029
Rp2030
ag4
(Fnan
Fnan
tp2031
Rp2032
ag4
(Fnan
Fnan
tp2033
Rp2034
ag4
(Fnan
Fnan
tp2035
Rp2036
ag4
(Fnan
Fnan
tp2037
Rp2038
ag4
(Fnan
Fnan
tp2039
Rp2040
ag4
(Fnan
Fnan
tp2041
Rp2042
ag4
(Fnan
Fnan
tp2043
Rp2044
ag4
(Fnan
Fnan
tp2045
Rp2046
ag4
(Fnan
Fnan
tp2047
Rp2048
ag4
(Fnan
Fnan
tp2049
Rp2050
ag4
(Fnan
Fnan
tp2051
Rp2052
ag4
(Fnan
Fnan
tp2053
Rp2054
ag4
(Fnan
Fnan
tp2055
Rp2056
ag4
(Fnan
Fnan
tp2057
Rp2058
ag4
(Fnan
Fnan
tp2059
Rp2060
ag4
(Fnan
Fnan
tp2061
Rp2062
ag4
(Fnan
Fnan
tp2063
Rp2064
ag4
(Fnan
Fnan
tp2065
Rp2066
ag4
(Fnan
Fnan
tp2067
Rp2068
ag4
(Fnan
Fnan
tp2069
Rp2070
ag4
(Fnan
Fnan
tp2071
Rp2072
ag4
(Fnan
Fnan
tp2073
Rp2074
ag4
(Fnan
Fnan
tp2075
Rp2076
ag4
(Fnan
Fnan
tp2077
Rp2078
ag4
(Fnan
Fnan
tp2079
Rp2080
ag4
(Fnan
Fnan
tp2081
Rp2082
ag4
(Fnan
Fnan
tp2083
Rp2084
ag4
(Fnan
Fnan
tp2085
Rp2086
ag4
(Fnan
Fnan
tp2087
Rp2088
ag4
(F13.061662
F0.10606065
tp2089
Rp2090
ag4
(F13.061155
F0.10572994
tp2091
Rp2092
ag4
(F13.060648
F0.10539923
tp2093
Rp2094
ag4
(F13.060142
F0.10506852
tp2095
Rp2096
ag4
(F13.059635
F0.10473781
tp2097
Rp2098
ag4
(F13.05913
F0.10440845
tp2099
Rp2100
ag4
(F13.058631
F0.10408314
tp2101
Rp2102
ag4
(F13.058131
F0.10375784
tp2103
Rp2104
ag4
(F13.057632
F0.10343254
tp2105
Rp2106
ag4
(F13.057133
F0.10310723
tp2107
Rp2108
ag4
(F13.056635
F0.10278374
tp2109
Rp2110
ag4
(F13.056142
F0.10246502
tp2111
Rp2112
ag4
(F13.055648
F0.1021463
tp2113
Rp2114
ag4
(F13.055154
F0.10182758
tp2115
Rp2116
ag4
(F13.05466
F0.10150886
tp2117
Rp2118
ag4
(F13.054169
F0.10119292
tp2119
Rp2120
ag4
(F13.053686
F0.10088346
tp2121
Rp2122
ag4
(F13.053202
F0.100574
tp2123
Rp2124
ag4
(F13.052718
F0.10026454
tp2125
Rp2126
ag4
(F13.052234
F0.099955082
tp2127
Rp2128
ag4
(F13.051751
F0.099646233
tp2129
Rp2130
ag4
(F13.051268
F0.099338649
tp2131
Rp2132
ag4
(F13.050786
F0.099031065
tp2133
Rp2134
ag4
(F13.050304
F0.098723481
tp2135
Rp2136
ag4
(F13.049822
F0.098415897
tp2137
Rp2138
ag4
(F13.049346
F0.098112885
tp2139
Rp2140
ag4
(F13.048883
F0.097818365
tp2141
Rp2142
ag4
(F13.04842
F0.097523845
tp2143
Rp2144
ag4
(F13.047957
F0.097229324
tp2145
Rp2146
ag4
(F13.047493
F0.096934804
tp2147
Rp2148
ag4
(F13.047031
F0.096640284
tp2149
Rp2150
ag4
(F13.046568
F0.096345765
tp2151
Rp2152
ag4
(F13.046106
F0.096051247
tp2153
Rp2154
ag4
(F13.045643
F0.095756728
tp2155
Rp2156
ag4
(F13.045181
F0.095462209
tp2157
Rp2158
ag4
(F13.044725
F0.0951723
tp2159
Rp2160
ag4
(F13.044279
F0.094889305
tp2161
Rp2162
ag4
(F13.043833
F0.09460631
tp2163
Rp2164
ag4
(F13.043386
F0.094323315
tp2165
Rp2166
ag4
(F13.04294
F0.094040321
tp2167
Rp2168
ag4
(F13.042495
F0.093758561
tp2169
Rp2170
ag4
(F13.042053
F0.093478473
tp2171
Rp2172
ag4
(F13.041611
F0.093198385
tp2173
Rp2174
ag4
(F13.041168
F0.092918298
tp2175
Rp2176
ag4
(F13.040726
F0.09263821
tp2177
Rp2178
ag4
(F13.040286
F0.092360737
tp2179
Rp2180
ag4
(F13.03985
F0.092086461
tp2181
Rp2182
ag4
(F13.039414
F0.091812186
tp2183
Rp2184
ag4
(F13.038977
F0.09153791
tp2185
Rp2186
ag4
(F13.038541
F0.091263634
tp2187
Rp2188
ag4
(F13.038109
F0.090992962
tp2189
Rp2190
ag4
(F13.037681
F0.090726271
tp2191
Rp2192
ag4
(F13.037253
F0.090459581
tp2193
Rp2194
ag4
(F13.036825
F0.090192891
tp2195
Rp2196
ag4
(F13.036397
F0.0899262
tp2197
Rp2198
ag4
(F13.035969
F0.089659711
tp2199
Rp2200
ag4
(F13.035541
F0.089393424
tp2201
Rp2202
ag4
(F13.035114
F0.089127136
tp2203
Rp2204
ag4
(F13.034686
F0.088860849
tp2205
Rp2206
ag4
(F13.034258
F0.088594561
tp2207
Rp2208
ag4
(F13.033841
F0.088334897
tp2209
Rp2210
ag4
(F13.033433
F0.088081225
tp2211
Rp2212
ag4
(F13.033025
F0.087827554
tp2213
Rp2214
ag4
(F13.032617
F0.087573882
tp2215
Rp2216
ag4
(F13.032209
F0.08732021
tp2217
Rp2218
ag4
(F13.0318
F0.087066538
tp2219
Rp2220
ag4
(F13.031392
F0.086812865
tp2221
Rp2222
ag4
(F13.030983
F0.086559192
tp2223
Rp2224
ag4
(F13.030574
F0.086305518
tp2225
Rp2226
ag4
(F13.030166
F0.086051845
tp2227
Rp2228
ag4
(F13.029764
F0.085802377
tp2229
Rp2230
ag4
(F13.029368
F0.085556017
tp2231
Rp2232
ag4
(F13.028971
F0.085309656
tp2233
Rp2234
ag4
(F13.028575
F0.085063296
tp2235
Rp2236
ag4
(F13.028178
F0.084816935
tp2237
Rp2238
ag4
(F13.027786
F0.084573632
tp2239
Rp2240
ag4
(F13.027397
F0.084332366
tp2241
Rp2242
ag4
(F13.027007
F0.084091101
tp2243
Rp2244
ag4
(F13.026618
F0.083849835
tp2245
Rp2246
ag4
(F13.026228
F0.08360857
tp2247
Rp2248
ag4
(F13.02584
F0.083368089
tp2249
Rp2250
ag4
(F13.025453
F0.083128078
tp2251
Rp2252
ag4
(F13.025066
F0.082888068
tp2253
Rp2254
ag4
(F13.024678
F0.082648057
tp2255
Rp2256
ag4
(F13.024291
F0.082408047
tp2257
Rp2258
ag4
(F13.023911
F0.082174779
tp2259
Rp2260
ag4
(F13.023534
F0.081945142
tp2261
Rp2262
ag4
(F13.023158
F0.081715506
tp2263
Rp2264
ag4
(F13.022781
F0.081485869
tp2265
Rp2266
ag4
(F13.022405
F0.081256233
tp2267
Rp2268
ag4
(F13.022029
F0.081026596
tp2269
Rp2270
ag4
(F13.021653
F0.080796959
tp2271
Rp2272
ag4
(F13.021277
F0.080567323
tp2273
Rp2274
ag4
(F13.020902
F0.080337686
tp2275
Rp2276
ag4
(F13.020526
F0.080108049
tp2277
Rp2278
ag4
(F13.020155
F0.079883001
tp2279
Rp2280
ag4
(F13.019785
F0.07965992
tp2281
Rp2282
ag4
(F13.019415
F0.079436838
tp2283
Rp2284
ag4
(F13.019046
F0.079213756
tp2285
Rp2286
ag4
(F13.018676
F0.078990675
tp2287
Rp2288
ag4
(F13.018311
F0.078770948
tp2289
Rp2290
ag4
(F13.017948
F0.078552494
tp2291
Rp2292
ag4
(F13.017584
F0.07833404
tp2293
Rp2294
ag4
(F13.017221
F0.078115586
tp2295
Rp2296
ag4
(F13.016857
F0.077897132
tp2297
Rp2298
ag4
(F13.016493
F0.07767887
tp2299
Rp2300
ag4
(F13.016129
F0.077460672
tp2301
Rp2302
ag4
(F13.015765
F0.077242474
tp2303
Rp2304
ag4
(F13.015401
F0.077024276
tp2305
Rp2306
ag4
(F13.015036
F0.076806079
tp2307
Rp2308
ag4
(F13.014686
F0.076595971
tp2309
Rp2310
ag4
(F13.014341
F0.076388213
tp2311
Rp2312
ag4
(F13.013995
F0.076180455
tp2313
Rp2314
ag4
(F13.013649
F0.075972697
tp2315
Rp2316
ag4
(F13.013303
F0.075764939
tp2317
Rp2318
ag4
(F13.012957
F0.075557181
tp2319
Rp2320
ag4
(F13.012612
F0.075349423
tp2321
Rp2322
ag4
(F13.012266
F0.075141665
tp2323
Rp2324
ag4
(F13.01192
F0.074933906
tp2325
Rp2326
ag4
(F13.011574
F0.074726148
tp2327
Rp2328
ag4
(F13.011233
F0.074521913
tp2329
Rp2330
ag4
(F13.010892
F0.074318424
tp2331
Rp2332
ag4
(F13.010552
F0.074114936
tp2333
Rp2334
ag4
(F13.010211
F0.073911447
tp2335
Rp2336
ag4
(F13.009871
F0.073707959
tp2337
Rp2338
ag4
(F13.009536
F0.073509476
tp2339
Rp2340
ag4
(F13.009201
F0.073311876
tp2341
Rp2342
ag4
(F13.008867
F0.073114276
tp2343
Rp2344
ag4
(F13.008533
F0.072916676
tp2345
Rp2346
ag4
(F13.008198
F0.072719076
tp2347
Rp2348
ag4
(F13.007864
F0.072521475
tp2349
Rp2350
ag4
(F13.00753
F0.072323874
tp2351
Rp2352
ag4
(F13.007196
F0.072126272
tp2353
Rp2354
ag4
(F13.006861
F0.071928671
tp2355
Rp2356
ag4
(F13.006527
F0.071731069
tp2357
Rp2358
ag4
(F13.006204
F0.071540159
tp2359
Rp2360
ag4
(F13.005883
F0.071349991
tp2361
Rp2362
ag4
(F13.005562
F0.071159824
tp2363
Rp2364
ag4
(F13.005241
F0.070969657
tp2365
Rp2366
ag4
(F13.004919
F0.07077949
tp2367
Rp2368
ag4
(F13.004602
F0.070591323
tp2369
Rp2370
ag4
(F13.004286
F0.070403318
tp2371
Rp2372
ag4
(F13.003969
F0.070215313
tp2373
Rp2374
ag4
(F13.003652
F0.070027309
tp2375
Rp2376
ag4
(F13.003335
F0.069839304
tp2377
Rp2378
ag4
(F13.003019
F0.069652056
tp2379
Rp2380
ag4
(F13.002702
F0.069464848
tp2381
Rp2382
ag4
(F13.002385
F0.06927764
tp2383
Rp2384
ag4
(F13.002069
F0.069090432
tp2385
Rp2386
ag4
(F13.001752
F0.068903224
tp2387
Rp2388
ag4
(F13.00144
F0.068724256
tp2389
Rp2390
ag4
(F13.001128
F0.068545499
tp2391
Rp2392
ag4
(F13.000816
F0.068366742
tp2393
Rp2394
ag4
(F13.000504
F0.068187985
tp2395
Rp2396
ag4
(F13.000192
F0.068009228
tp2397
Rp2398
ag4
(F12.99988
F0.067830472
tp2399
Rp2400
ag4
(F12.999567
F0.067651716
tp2401
Rp2402
ag4
(F12.999255
F0.067472961
tp2403
Rp2404
ag4
(F12.998943
F0.067294205
tp2405
Rp2406
ag4
(F12.998631
F0.067115528
tp2407
Rp2408
ag4
(F12.998328
F0.066939887
tp2409
Rp2410
ag4
(F12.998024
F0.066764247
tp2411
Rp2412
ag4
(F12.997721
F0.066588606
tp2413
Rp2414
ag4
(F12.997417
F0.066412966
tp2415
Rp2416
ag4
(F12.997114
F0.066237609
tp2417
Rp2418
ag4
(F12.996824
F0.066067648
tp2419
Rp2420
ag4
(F12.996534
F0.065897686
tp2421
Rp2422
ag4
(F12.996244
F0.065727724
tp2423
Rp2424
ag4
(F12.995955
F0.065557763
tp2425
Rp2426
ag4
(F12.995665
F0.065387801
tp2427
Rp2428
ag4
(F12.995375
F0.065217841
tp2429
Rp2430
ag4
(F12.995085
F0.065047881
tp2431
Rp2432
ag4
(F12.994795
F0.064877921
tp2433
Rp2434
ag4
(F12.994505
F0.064707961
tp2435
Rp2436
ag4
(F12.994216
F0.064538477
tp2437
Rp2438
ag4
(F12.993929
F0.064373276
tp2439
Rp2440
ag4
(F12.993642
F0.064208075
tp2441
Rp2442
ag4
(F12.993355
F0.064042875
tp2443
Rp2444
ag4
(F12.993069
F0.063877674
tp2445
Rp2446
ag4
(F12.992782
F0.063712908
tp2447
Rp2448
ag4
(F12.992498
F0.063551186
tp2449
Rp2450
ag4
(F12.992213
F0.063389464
tp2451
Rp2452
ag4
(F12.991929
F0.063227743
tp2453
Rp2454
ag4
(F12.991644
F0.063066021
tp2455
Rp2456
ag4
(F12.99136
F0.062904299
tp2457
Rp2458
ag4
(F12.991075
F0.062742577
tp2459
Rp2460
ag4
(F12.990789
F0.062580856
tp2461
Rp2462
ag4
(F12.990504
F0.062419134
tp2463
Rp2464
ag4
(F12.990219
F0.062257412
tp2465
Rp2466
ag4
(F12.989936
F0.06209674
tp2467
Rp2468
ag4
(F12.989663
F0.06194102
tp2469
Rp2470
ag4
(F12.98939
F0.061785299
tp2471
Rp2472
ag4
(F12.989117
F0.061629578
tp2473
Rp2474
ag4
(F12.988844
F0.061473857
tp2475
Rp2476
ag4
(F12.988572
F0.061318522
tp2477
Rp2478
ag4
(F12.988302
F0.061164729
tp2479
Rp2480
ag4
(F12.988033
F0.061010936
tp2481
Rp2482
ag4
(F12.987764
F0.060857143
tp2483
Rp2484
ag4
(F12.987495
F0.060703351
tp2485
Rp2486
ag4
(F12.987226
F0.060549558
tp2487
Rp2488
ag4
(F12.986956
F0.060395765
tp2489
Rp2490
ag4
(F12.986686
F0.060241973
tp2491
Rp2492
ag4
(F12.986416
F0.06008818
tp2493
Rp2494
ag4
(F12.986146
F0.059934387
tp2495
Rp2496
ag4
(F12.985879
F0.059782289
tp2497
Rp2498
ag4
(F12.985619
F0.059635275
tp2499
Rp2500
ag4
(F12.985359
F0.059488262
tp2501
Rp2502
ag4
(F12.985099
F0.059341248
tp2503
Rp2504
ag4
(F12.984839
F0.059194234
tp2505
Rp2506
ag4
(F12.984579
F0.05904745
tp2507
Rp2508
ag4
(F12.984319
F0.058901274
tp2509
Rp2510
ag4
(F12.984059
F0.058755097
tp2511
Rp2512
ag4
(F12.983799
F0.05860892
tp2513
Rp2514
ag4
(F12.983539
F0.058462744
tp2515
Rp2516
ag4
(F12.98328
F0.058316567
tp2517
Rp2518
ag4
(F12.98302
F0.058170391
tp2519
Rp2520
ag4
(F12.982761
F0.058024214
tp2521
Rp2522
ag4
(F12.982502
F0.057878037
tp2523
Rp2524
ag4
(F12.982243
F0.057731861
tp2525
Rp2526
ag4
(F12.981987
F0.057587959
tp2527
Rp2528
ag4
(F12.981737
F0.057448783
tp2529
Rp2530
ag4
(F12.981487
F0.057309607
tp2531
Rp2532
ag4
(F12.981237
F0.057170431
tp2533
Rp2534
ag4
(F12.980987
F0.057031255
tp2535
Rp2536
ag4
(F12.980737
F0.056892137
tp2537
Rp2538
ag4
(F12.980487
F0.056753127
tp2539
Rp2540
ag4
(F12.980237
F0.056614117
tp2541
Rp2542
ag4
(F12.979987
F0.056475107
tp2543
Rp2544
ag4
(F12.979737
F0.056336097
tp2545
Rp2546
ag4
(F12.979487
F0.05619713
tp2547
Rp2548
ag4
(F12.979237
F0.056058235
tp2549
Rp2550
ag4
(F12.978987
F0.05591934
tp2551
Rp2552
ag4
(F12.978737
F0.055780445
tp2553
Rp2554
ag4
(F12.978487
F0.055641549
tp2555
Rp2556
ag4
(F12.978241
F0.055505372
tp2557
Rp2558
ag4
(F12.978001
F0.055373273
tp2559
Rp2560
ag4
(F12.977761
F0.055241174
tp2561
Rp2562
ag4
(F12.977521
F0.055109075
tp2563
Rp2564
ag4
(F12.977281
F0.054976976
tp2565
Rp2566
ag4
(F12.977041
F0.054844877
tp2567
Rp2568
ag4
(F12.9768
F0.054712778
tp2569
Rp2570
ag4
(F12.976559
F0.05458068
tp2571
Rp2572
ag4
(F12.976319
F0.054448582
tp2573
Rp2574
ag4
(F12.976078
F0.054316483
tp2575
Rp2576
ag4
(F12.975837
F0.054184409
tp2577
Rp2578
ag4
(F12.975596
F0.054052366
tp2579
Rp2580
ag4
(F12.975356
F0.053920322
tp2581
Rp2582
ag4
(F12.975115
F0.053788278
tp2583
Rp2584
ag4
(F12.974874
F0.053656234
tp2585
Rp2586
ag4
(F12.974638
F0.053527251
tp2587
Rp2588
ag4
(F12.974406
F0.053401651
tp2589
Rp2590
ag4
(F12.974174
F0.053276051
tp2591
Rp2592
ag4
(F12.973943
F0.05315045
tp2593
Rp2594
ag4
(F12.973711
F0.05302485
tp2595
Rp2596
ag4
(F12.97348
F0.052899249
tp2597
Rp2598
ag4
(F12.973248
F0.052773648
tp2599
Rp2600
ag4
(F12.973017
F0.052648047
tp2601
Rp2602
ag4
(F12.972785
F0.052522446
tp2603
Rp2604
ag4
(F12.972553
F0.052396845
tp2605
Rp2606
ag4
(F12.972322
F0.052271244
tp2607
Rp2608
ag4
(F12.972092
F0.052145644
tp2609
Rp2610
ag4
(F12.971861
F0.052020044
tp2611
Rp2612
ag4
(F12.97163
F0.051894443
tp2613
Rp2614
ag4
(F12.971399
F0.051768843
tp2615
Rp2616
ag4
(F12.971175
F0.051646423
tp2617
Rp2618
ag4
(F12.970957
F0.051526606
tp2619
Rp2620
ag4
(F12.970738
F0.051406789
tp2621
Rp2622
ag4
(F12.970519
F0.051286972
tp2623
Rp2624
ag4
(F12.970301
F0.051167154
tp2625
Rp2626
ag4
(F12.970083
F0.051047506
tp2627
Rp2628
ag4
(F12.969866
F0.050927982
tp2629
Rp2630
ag4
(F12.969649
F0.050808458
tp2631
Rp2632
ag4
(F12.969432
F0.050688934
tp2633
Rp2634
ag4
(F12.969215
F0.050569411
tp2635
Rp2636
ag4
(F12.968998
F0.050449887
tp2637
Rp2638
ag4
(F12.96878
F0.050330363
tp2639
Rp2640
ag4
(F12.968562
F0.050210839
tp2641
Rp2642
ag4
(F12.968345
F0.050091315
tp2643
Rp2644
ag4
(F12.968127
F0.049971792
tp2645
Rp2646
ag4
(F12.967911
F0.04985545
tp2647
Rp2648
ag4
(F12.967696
F0.049741017
tp2649
Rp2650
ag4
(F12.967482
F0.049626584
tp2651
Rp2652
ag4
(F12.967267
F0.049512152
tp2653
Rp2654
ag4
(F12.967052
F0.049397719
tp2655
Rp2656
ag4
(F12.966838
F0.049283892
tp2657
Rp2658
ag4
(F12.966624
F0.049170391
tp2659
Rp2660
ag4
(F12.96641
F0.049056889
tp2661
Rp2662
ag4
(F12.966196
F0.048943388
tp2663
Rp2664
ag4
(F12.965982
F0.048829887
tp2665
Rp2666
ag4
(F12.965768
F0.048716386
tp2667
Rp2668
ag4
(F12.965554
F0.048602885
tp2669
Rp2670
ag4
(F12.96534
F0.048489384
tp2671
Rp2672
ag4
(F12.965127
F0.048375882
tp2673
Rp2674
ag4
(F12.964913
F0.048262381
tp2675
Rp2676
ag4
(F12.964705
F0.048151572
tp2677
Rp2678
ag4
(F12.9645
F0.048041917
tp2679
Rp2680
ag4
(F12.964296
F0.047932262
tp2681
Rp2682
ag4
(F12.964091
F0.047822606
tp2683
Rp2684
ag4
(F12.963886
F0.047712951
tp2685
Rp2686
ag4
(F12.963685
F0.047604554
tp2687
Rp2688
ag4
(F12.963485
F0.047496634
tp2689
Rp2690
ag4
(F12.963285
F0.047388715
tp2691
Rp2692
ag4
(F12.963084
F0.047280795
tp2693
Rp2694
ag4
(F12.962884
F0.047172876
tp2695
Rp2696
ag4
(F12.962684
F0.047064956
tp2697
Rp2698
ag4
(F12.962483
F0.046957036
tp2699
Rp2700
ag4
(F12.962282
F0.046849117
tp2701
Rp2702
ag4
(F12.962081
F0.046741197
tp2703
Rp2704
ag4
(F12.96188
F0.046633278
tp2705
Rp2706
ag4
(F12.96168
F0.046527371
tp2707
Rp2708
ag4
(F12.961481
F0.046422049
tp2709
Rp2710
ag4
(F12.961282
F0.046316727
tp2711
Rp2712
ag4
(F12.961082
F0.046211405
tp2713
Rp2714
ag4
(F12.960883
F0.046106083
tp2715
Rp2716
ag4
(F12.960685
F0.046002995
tp2717
Rp2718
ag4
(F12.960488
F0.045900465
tp2719
Rp2720
ag4
(F12.960291
F0.045797935
tp2721
Rp2722
ag4
(F12.960094
F0.045695406
tp2723
Rp2724
ag4
(F12.959897
F0.045592876
tp2725
Rp2726
ag4
(F12.9597
F0.045490346
tp2727
Rp2728
ag4
(F12.959503
F0.045387817
tp2729
Rp2730
ag4
(F12.959306
F0.045285287
tp2731
Rp2732
ag4
(F12.959109
F0.045182757
tp2733
Rp2734
ag4
(F12.958912
F0.045080227
tp2735
Rp2736
ag4
(F12.958717
F0.044978654
tp2737
Rp2738
ag4
(F12.958522
F0.044877249
tp2739
Rp2740
ag4
(F12.958327
F0.044775844
tp2741
Rp2742
ag4
(F12.958132
F0.044674439
tp2743
Rp2744
ag4
(F12.957938
F0.044573034
tp2745
Rp2746
ag4
(F12.957752
F0.044475078
tp2747
Rp2748
ag4
(F12.957568
F0.044377614
tp2749
Rp2750
ag4
(F12.957384
F0.044280151
tp2751
Rp2752
ag4
(F12.9572
F0.044182688
tp2753
Rp2754
ag4
(F12.957016
F0.044085224
tp2755
Rp2756
ag4
(F12.956831
F0.043987761
tp2757
Rp2758
ag4
(F12.956647
F0.043890298
tp2759
Rp2760
ag4
(F12.956462
F0.043792834
tp2761
Rp2762
ag4
(F12.956277
F0.043695371
tp2763
Rp2764
ag4
(F12.956092
F0.043597908
tp2765
Rp2766
ag4
(F12.955908
F0.043500444
tp2767
Rp2768
ag4
(F12.955723
F0.043402981
tp2769
Rp2770
ag4
(F12.955538
F0.043305518
tp2771
Rp2772
ag4
(F12.955353
F0.043208054
tp2773
Rp2774
ag4
(F12.955168
F0.043110591
tp2775
Rp2776
ag4
(F12.954991
F0.043017325
tp2777
Rp2778
ag4
(F12.954814
F0.042924281
tp2779
Rp2780
ag4
(F12.954637
F0.042831236
tp2781
Rp2782
ag4
(F12.954459
F0.042738191
tp2783
Rp2784
ag4
(F12.954282
F0.042645147
tp2785
Rp2786
ag4
(F12.954105
F0.042552528
tp2787
Rp2788
ag4
(F12.953928
F0.04245992
tp2789
Rp2790
ag4
(F12.953751
F0.042367312
tp2791
Rp2792
ag4
(F12.953574
F0.042274703
tp2793
Rp2794
ag4
(F12.953397
F0.042182095
tp2795
Rp2796
ag4
(F12.95322
F0.042089487
tp2797
Rp2798
ag4
(F12.953044
F0.041996879
tp2799
Rp2800
ag4
(F12.952868
F0.041904271
tp2801
Rp2802
ag4
(F12.952691
F0.041811663
tp2803
Rp2804
ag4
(F12.952515
F0.041719117
tp2805
Rp2806
ag4
(F12.952339
F0.041629011
tp2807
Rp2808
ag4
(F12.952164
F0.041538905
tp2809
Rp2810
ag4
(F12.951988
F0.041448798
tp2811
Rp2812
ag4
(F12.951813
F0.041358692
tp2813
Rp2814
ag4
(F12.951637
F0.041268691
tp2815
Rp2816
ag4
(F12.951463
F0.041180681
tp2817
Rp2818
ag4
(F12.951289
F0.041092671
tp2819
Rp2820
ag4
(F12.951115
F0.041004661
tp2821
Rp2822
ag4
(F12.950941
F0.040916652
tp2823
Rp2824
ag4
(F12.950767
F0.040828642
tp2825
Rp2826
ag4
(F12.950594
F0.040740632
tp2827
Rp2828
ag4
(F12.95042
F0.040652623
tp2829
Rp2830
ag4
(F12.950247
F0.040564613
tp2831
Rp2832
ag4
(F12.950074
F0.040476603
tp2833
Rp2834
ag4
(F12.9499
F0.040388648
tp2835
Rp2836
ag4
(F12.949728
F0.040301185
tp2837
Rp2838
ag4
(F12.949555
F0.040213722
tp2839
Rp2840
ag4
(F12.949383
F0.040126259
tp2841
Rp2842
ag4
(F12.94921
F0.040038796
tp2843
Rp2844
ag4
(F12.949039
F0.039951815
tp2845
Rp2846
ag4
(F12.948877
F0.039868211
tp2847
Rp2848
ag4
(F12.948714
F0.039784608
tp2849
Rp2850
ag4
(F12.948551
F0.039701004
tp2851
Rp2852
ag4
(F12.948389
F0.0396174
tp2853
Rp2854
ag4
(F12.948226
F0.039533797
tp2855
Rp2856
ag4
(F12.948065
F0.039450194
tp2857
Rp2858
ag4
(F12.947903
F0.039366591
tp2859
Rp2860
ag4
(F12.947741
F0.039282988
tp2861
Rp2862
ag4
(F12.947579
F0.039199385
tp2863
Rp2864
ag4
(F12.947417
F0.039115782
tp2865
Rp2866
ag4
(F12.947256
F0.039032179
tp2867
Rp2868
ag4
(F12.947094
F0.038948576
tp2869
Rp2870
ag4
(F12.946932
F0.038864973
tp2871
Rp2872
ag4
(F12.94677
F0.03878137
tp2873
Rp2874
ag4
(F12.946609
F0.038698307
tp2875
Rp2876
ag4
(F12.946449
F0.038617406
tp2877
Rp2878
ag4
(F12.946288
F0.038536506
tp2879
Rp2880
ag4
(F12.946128
F0.038455605
tp2881
Rp2882
ag4
(F12.945968
F0.038374705
tp2883
Rp2884
ag4
(F12.945808
F0.038294135
tp2885
Rp2886
ag4
(F12.945648
F0.038214702
tp2887
Rp2888
ag4
(F12.945489
F0.03813527
tp2889
Rp2890
ag4
(F12.945329
F0.038055838
tp2891
Rp2892
ag4
(F12.94517
F0.037976406
tp2893
Rp2894
ag4
(F12.94501
F0.037896974
tp2895
Rp2896
ag4
(F12.944852
F0.037817541
tp2897
Rp2898
ag4
(F12.944693
F0.037738109
tp2899
Rp2900
ag4
(F12.944534
F0.037658677
tp2901
Rp2902
ag4
(F12.944376
F0.037579245
tp2903
Rp2904
ag4
(F12.944217
F0.037499938
tp2905
Rp2906
ag4
(F12.944058
F0.037420963
tp2907
Rp2908
ag4
(F12.943899
F0.037341988
tp2909
Rp2910
ag4
(F12.943741
F0.037263012
tp2911
Rp2912
ag4
(F12.943582
F0.037184037
tp2913
Rp2914
ag4
(F12.943427
F0.037106107
tp2915
Rp2916
ag4
(F12.943279
F0.037030617
tp2917
Rp2918
ag4
(F12.943132
F0.036955128
tp2919
Rp2920
ag4
(F12.942985
F0.036879638
tp2921
Rp2922
ag4
(F12.942838
F0.036804148
tp2923
Rp2924
ag4
(F12.94269
F0.036728658
tp2925
Rp2926
ag4
(F12.942542
F0.036653168
tp2927
Rp2928
ag4
(F12.942394
F0.036577677
tp2929
Rp2930
ag4
(F12.942246
F0.036502187
tp2931
Rp2932
ag4
(F12.942098
F0.036426696
tp2933
Rp2934
ag4
(F12.94195
F0.036351206
tp2935
Rp2936
ag4
(F12.941802
F0.036275716
tp2937
Rp2938
ag4
(F12.941654
F0.036200227
tp2939
Rp2940
ag4
(F12.941506
F0.036124737
tp2941
Rp2942
ag4
(F12.941358
F0.036049247
tp2943
Rp2944
ag4
(F12.941211
F0.035974507
tp2945
Rp2946
ag4
(F12.941065
F0.035901016
tp2947
Rp2948
ag4
(F12.940918
F0.035827524
tp2949
Rp2950
ag4
(F12.940772
F0.035754033
tp2951
Rp2952
ag4
(F12.940625
F0.035680542
tp2953
Rp2954
ag4
(F12.940479
F0.035607766
tp2955
Rp2956
ag4
(F12.940333
F0.035536061
tp2957
Rp2958
ag4
(F12.940188
F0.035464356
tp2959
Rp2960
ag4
(F12.940042
F0.035392652
tp2961
Rp2962
ag4
(F12.939896
F0.035320947
tp2963
Rp2964
ag4
(F12.939751
F0.035249243
tp2965
Rp2966
ag4
(F12.939605
F0.035177537
tp2967
Rp2968
ag4
(F12.939459
F0.035105832
tp2969
Rp2970
ag4
(F12.939314
F0.035034127
tp2971
Rp2972
ag4
(F12.939168
F0.034962421
tp2973
Rp2974
ag4
(F12.939022
F0.034890716
tp2975
Rp2976
ag4
(F12.938877
F0.034819012
tp2977
Rp2978
ag4
(F12.938731
F0.034747307
tp2979
Rp2980
ag4
(F12.938585
F0.034675603
tp2981
Rp2982
ag4
(F12.938439
F0.034603898
tp2983
Rp2984
ag4
(F12.938297
F0.034533707
tp2985
Rp2986
ag4
(F12.938157
F0.034465189
tp2987
Rp2988
ag4
(F12.938018
F0.03439667
tp2989
Rp2990
ag4
(F12.937878
F0.034328152
tp2991
Rp2992
ag4
(F12.937738
F0.034259634
tp2993
Rp2994
ag4
(F12.937599
F0.034191328
tp2995
Rp2996
ag4
(F12.937461
F0.034123236
tp2997
Rp2998
ag4
(F12.937322
F0.034055144
tp2999
Rp3000
ag4
(F12.937183
F0.033987051
tp3001
Rp3002
ag4
(F12.937044
F0.033918959
tp3003
Rp3004
ag4
(F12.936905
F0.033850867
tp3005
Rp3006
ag4
(F12.936767
F0.033782774
tp3007
Rp3008
ag4
(F12.936628
F0.033714682
tp3009
Rp3010
ag4
(F12.936489
F0.03364659
tp3011
Rp3012
ag4
(F12.93635
F0.033578497
tp3013
Rp3014
ag4
(F12.936212
F0.033510736
tp3015
Rp3016
ag4
(F12.936074
F0.033443245
tp3017
Rp3018
ag4
(F12.935936
F0.033375754
tp3019
Rp3020
ag4
(F12.935798
F0.033308263
tp3021
Rp3022
ag4
(F12.93566
F0.033240772
tp3023
Rp3024
ag4
(F12.935525
F0.0331749
tp3025
Rp3026
ag4
(F12.935393
F0.033110224
tp3027
Rp3028
ag4
(F12.935262
F0.033045549
tp3029
Rp3030
ag4
(F12.93513
F0.032980873
tp3031
Rp3032
ag4
(F12.934998
F0.032916197
tp3033
Rp3034
ag4
(F12.934865
F0.032851522
tp3035
Rp3036
ag4
(F12.934733
F0.032786845
tp3037
Rp3038
ag4
(F12.9346
F0.032722169
tp3039
Rp3040
ag4
(F12.934467
F0.032657493
tp3041
Rp3042
ag4
(F12.934335
F0.032592816
tp3043
Rp3044
ag4
(F12.934202
F0.032528141
tp3045
Rp3046
ag4
(F12.93407
F0.032463465
tp3047
Rp3048
ag4
(F12.933937
F0.03239879
tp3049
Rp3050
ag4
(F12.933804
F0.032334114
tp3051
Rp3052
ag4
(F12.933672
F0.032269438
tp3053
Rp3054
ag4
(F12.93354
F0.032205627
tp3055
Rp3056
ag4
(F12.933409
F0.032142282
tp3057
Rp3058
ag4
(F12.933278
F0.032078936
tp3059
Rp3060
ag4
(F12.933147
F0.03201559
tp3061
Rp3062
ag4
(F12.933015
F0.031952245
tp3063
Rp3064
ag4
(F12.932885
F0.031890192
tp3065
Rp3066
ag4
(F12.932754
F0.031828763
tp3067
Rp3068
ag4
(F12.932624
F0.031767333
tp3069
Rp3070
ag4
(F12.932494
F0.031705904
tp3071
Rp3072
ag4
(F12.932363
F0.031644475
tp3073
Rp3074
ag4
(F12.932233
F0.031583045
tp3075
Rp3076
ag4
(F12.932103
F0.031521614
tp3077
Rp3078
ag4
(F12.931972
F0.031460184
tp3079
Rp3080
ag4
(F12.931842
F0.031398754
tp3081
Rp3082
ag4
(F12.931712
F0.031337324
tp3083
Rp3084
ag4
(F12.931581
F0.031275893
tp3085
Rp3086
ag4
(F12.931451
F0.031214463
tp3087
Rp3088
ag4
(F12.931321
F0.031153033
tp3089
Rp3090
ag4
(F12.93119
F0.031091603
tp3091
Rp3092
ag4
(F12.93106
F0.031030173
tp3093
Rp3094
ag4
(F12.930934
F0.03097011
tp3095
Rp3096
ag4
(F12.93081
F0.030910504
tp3097
Rp3098
ag4
(F12.930686
F0.030850898
tp3099
Rp3100
ag4
(F12.930562
F0.030791292
tp3101
Rp3102
ag4
(F12.930437
F0.030731686
tp3103
Rp3104
ag4
(F12.930317
F0.030673087
tp3105
Rp3106
ag4
(F12.930197
F0.03061478
tp3107
Rp3108
ag4
(F12.930077
F0.030556473
tp3109
Rp3110
ag4
(F12.929958
F0.030498166
tp3111
Rp3112
ag4
(F12.929838
F0.030439859
tp3113
Rp3114
ag4
(F12.929718
F0.030381552
tp3115
Rp3116
ag4
(F12.929598
F0.030323245
tp3117
Rp3118
ag4
(F12.929477
F0.030264938
tp3119
Rp3120
ag4
(F12.929357
F0.030206631
tp3121
Rp3122
ag4
(F12.929236
F0.030148324
tp3123
Rp3124
ag4
(F12.929117
F0.030090017
tp3125
Rp3126
ag4
(F12.928997
F0.03003171
tp3127
Rp3128
ag4
(F12.928877
F0.029973403
tp3129
Rp3130
ag4
(F12.928758
F0.029915096
tp3131
Rp3132
ag4
(F12.928638
F0.029856789
tp3133
Rp3134
ag4
(F12.928519
F0.029800196
tp3135
Rp3136
ag4
(F12.9284
F0.029743905
tp3137
Rp3138
ag4
(F12.928282
F0.029687614
tp3139
Rp3140
ag4
(F12.928163
F0.029631323
tp3141
Rp3142
ag4
(F12.928044
F0.029575032
tp3143
Rp3144
ag4
(F12.927926
F0.029519519
tp3145
Rp3146
ag4
(F12.927808
F0.029464117
tp3147
Rp3148
ag4
(F12.927689
F0.029408715
tp3149
Rp3150
ag4
(F12.927571
F0.029353313
tp3151
Rp3152
ag4
(F12.927453
F0.029297911
tp3153
Rp3154
ag4
(F12.927335
F0.029242509
tp3155
Rp3156
ag4
(F12.927217
F0.029187107
tp3157
Rp3158
ag4
(F12.927099
F0.029131705
tp3159
Rp3160
ag4
(F12.926981
F0.029076303
tp3161
Rp3162
ag4
(F12.926863
F0.029020901
tp3163
Rp3164
ag4
(F12.926745
F0.028965499
tp3165
Rp3166
ag4
(F12.926627
F0.028910097
tp3167
Rp3168
ag4
(F12.926509
F0.028854694
tp3169
Rp3170
ag4
(F12.926391
F0.028799292
tp3171
Rp3172
ag4
(F12.926272
F0.02874389
tp3173
Rp3174
ag4
(F12.926159
F0.028690484
tp3175
Rp3176
ag4
(F12.926045
F0.028637183
tp3177
Rp3178
ag4
(F12.925932
F0.028583883
tp3179
Rp3180
ag4
(F12.925818
F0.028530583
tp3181
Rp3182
ag4
(F12.925705
F0.028477282
tp3183
Rp3184
ag4
(F12.925593
F0.028424686
tp3185
Rp3186
ag4
(F12.925481
F0.028372108
tp3187
Rp3188
ag4
(F12.925369
F0.02831953
tp3189
Rp3190
ag4
(F12.925257
F0.028266952
tp3191
Rp3192
ag4
(F12.925145
F0.028214375
tp3193
Rp3194
ag4
(F12.925033
F0.028161797
tp3195
Rp3196
ag4
(F12.924921
F0.02810922
tp3197
Rp3198
ag4
(F12.924809
F0.028056642
tp3199
Rp3200
ag4
(F12.924697
F0.028004065
tp3201
Rp3202
ag4
(F12.924585
F0.027951487
tp3203
Rp3204
ag4
(F12.924473
F0.027898909
tp3205
Rp3206
ag4
(F12.924361
F0.027846332
tp3207
Rp3208
ag4
(F12.924249
F0.027793754
tp3209
Rp3210
ag4
(F12.924138
F0.027741177
tp3211
Rp3212
ag4
(F12.924026
F0.027688696
tp3213
Rp3214
ag4
(F12.923918
F0.02763805
tp3215
Rp3216
ag4
(F12.92381
F0.027587404
tp3217
Rp3218
ag4
(F12.923701
F0.027536758
tp3219
Rp3220
ag4
(F12.923593
F0.027486112
tp3221
Rp3222
ag4
(F12.923485
F0.02743552
tp3223
Rp3224
ag4
(F12.923379
F0.027385596
tp3225
Rp3226
ag4
(F12.923272
F0.027335672
tp3227
Rp3228
ag4
(F12.923166
F0.027285748
tp3229
Rp3230
ag4
(F12.923059
F0.027235824
tp3231
Rp3232
ag4
(F12.922952
F0.0271859
tp3233
Rp3234
ag4
(F12.922846
F0.027135975
tp3235
Rp3236
ag4
(F12.922739
F0.027086051
tp3237
Rp3238
ag4
(F12.922633
F0.027036127
tp3239
Rp3240
ag4
(F12.922526
F0.026986203
tp3241
Rp3242
ag4
(F12.922419
F0.026936279
tp3243
Rp3244
ag4
(F12.922313
F0.026886355
tp3245
Rp3246
ag4
(F12.922206
F0.026836431
tp3247
Rp3248
ag4
(F12.9221
F0.026786507
tp3249
Rp3250
ag4
(F12.921993
F0.026736582
tp3251
Rp3252
ag4
(F12.921887
F0.026686907
tp3253
Rp3254
ag4
(F12.921782
F0.026638639
tp3255
Rp3256
ag4
(F12.921677
F0.02659037
tp3257
Rp3258
ag4
(F12.921572
F0.026542102
tp3259
Rp3260
ag4
(F12.921467
F0.026493834
tp3261
Rp3262
ag4
(F12.921362
F0.026445723
tp3263
Rp3264
ag4
(F12.921257
F0.026398354
tp3265
Rp3266
ag4
(F12.921153
F0.026350985
tp3267
Rp3268
ag4
(F12.921049
F0.026303616
tp3269
Rp3270
ag4
(F12.920945
F0.026256246
tp3271
Rp3272
ag4
(F12.92084
F0.026208877
tp3273
Rp3274
ag4
(F12.920735
F0.026161508
tp3275
Rp3276
ag4
(F12.92063
F0.02611414
tp3277
Rp3278
ag4
(F12.920525
F0.026066771
tp3279
Rp3280
ag4
(F12.92042
F0.026019402
tp3281
Rp3282
ag4
(F12.920315
F0.025972033
tp3283
Rp3284
ag4
(F12.920211
F0.025924664
tp3285
Rp3286
ag4
(F12.920107
F0.025877295
tp3287
Rp3288
ag4
(F12.920002
F0.025829926
tp3289
Rp3290
ag4
(F12.919898
F0.025782558
tp3291
Rp3292
ag4
(F12.919794
F0.025735486
tp3293
Rp3294
ag4
(F12.919692
F0.025689305
tp3295
Rp3296
ag4
(F12.91959
F0.025643124
tp3297
Rp3298
ag4
(F12.919488
F0.025596943
tp3299
Rp3300
ag4
(F12.919386
F0.025550762
tp3301
Rp3302
ag4
(F12.919285
F0.025504908
tp3303
Rp3304
ag4
(F12.919185
F0.025459916
tp3305
Rp3306
ag4
(F12.919086
F0.025414924
tp3307
Rp3308
ag4
(F12.918986
F0.025369932
tp3309
Rp3310
ag4
(F12.918886
F0.02532494
tp3311
Rp3312
ag4
(F12.918787
F0.025279948
tp3313
Rp3314
ag4
(F12.918688
F0.025234955
tp3315
Rp3316
ag4
(F12.918589
F0.025189963
tp3317
Rp3318
ag4
(F12.91849
F0.025144971
tp3319
Rp3320
ag4
(F12.918391
F0.025099979
tp3321
Rp3322
ag4
(F12.918292
F0.025054987
tp3323
Rp3324
ag4
(F12.918192
F0.025009994
tp3325
Rp3326
ag4
(F12.918093
F0.024965002
tp3327
Rp3328
ag4
(F12.917993
F0.024920009
tp3329
Rp3330
ag4
(F12.917893
F0.024875017
tp3331
Rp3332
ag4
(F12.917794
F0.024830257
tp3333
Rp3334
ag4
(F12.917697
F0.024785928
tp3335
Rp3336
ag4
(F12.9176
F0.0247416
tp3337
Rp3338
ag4
(F12.917502
F0.024697272
tp3339
Rp3340
ag4
(F12.917405
F0.024652943
tp3341
Rp3342
ag4
(F12.917309
F0.02460923
tp3343
Rp3344
ag4
(F12.917214
F0.024566543
tp3345
Rp3346
ag4
(F12.91712
F0.024523857
tp3347
Rp3348
ag4
(F12.917026
F0.02448117
tp3349
Rp3350
ag4
(F12.916931
F0.024438483
tp3351
Rp3352
ag4
(F12.916837
F0.024395796
tp3353
Rp3354
ag4
(F12.916744
F0.024353109
tp3355
Rp3356
ag4
(F12.91665
F0.024310422
tp3357
Rp3358
ag4
(F12.916557
F0.024267735
tp3359
Rp3360
ag4
(F12.916463
F0.024225048
tp3361
Rp3362
ag4
(F12.91637
F0.024182361
tp3363
Rp3364
ag4
(F12.916276
F0.024139673
tp3365
Rp3366
ag4
(F12.916183
F0.024096986
tp3367
Rp3368
ag4
(F12.916089
F0.024054299
tp3369
Rp3370
ag4
(F12.915995
F0.024011611
tp3371
Rp3372
ag4
(F12.915902
F0.02396893
tp3373
Rp3374
ag4
(F12.915807
F0.023926256
tp3375
Rp3376
ag4
(F12.915713
F0.023883582
tp3377
Rp3378
ag4
(F12.915619
F0.023840908
tp3379
Rp3380
ag4
(F12.915524
F0.023798235
tp3381
Rp3382
ag4
(F12.915431
F0.023756584
tp3383
Rp3384
ag4
(F12.915339
F0.023716066
tp3385
Rp3386
ag4
(F12.915247
F0.023675547
tp3387
Rp3388
ag4
(F12.915155
F0.023635028
tp3389
Rp3390
ag4
(F12.915063
F0.023594509
tp3391
Rp3392
ag4
(F12.914971
F0.02355399
tp3393
Rp3394
ag4
(F12.914878
F0.023513471
tp3395
Rp3396
ag4
(F12.914785
F0.023472952
tp3397
Rp3398
ag4
(F12.914692
F0.023432433
tp3399
Rp3400
ag4
(F12.9146
F0.023391914
tp3401
Rp3402
ag4
(F12.914507
F0.023351395
tp3403
Rp3404
ag4
(F12.914415
F0.023310876
tp3405
Rp3406
ag4
(F12.914323
F0.023270357
tp3407
Rp3408
ag4
(F12.914231
F0.023229838
tp3409
Rp3410
ag4
(F12.914139
F0.023189319
tp3411
Rp3412
ag4
(F12.914047
F0.023148801
tp3413
Rp3414
ag4
(F12.913954
F0.023108282
tp3415
Rp3416
ag4
(F12.913861
F0.023067763
tp3417
Rp3418
ag4
(F12.913768
F0.023027244
tp3419
Rp3420
ag4
(F12.913676
F0.022986725
tp3421
Rp3422
ag4
(F12.913586
F0.022946993
tp3423
Rp3424
ag4
(F12.9135
F0.022907842
tp3425
Rp3426
ag4
(F12.913413
F0.022868691
tp3427
Rp3428
ag4
(F12.913326
F0.02282954
tp3429
Rp3430
ag4
(F12.91324
F0.022790388
tp3431
Rp3432
ag4
(F12.913155
F0.022751668
tp3433
Rp3434
ag4
(F12.913071
F0.022713234
tp3435
Rp3436
ag4
(F12.912988
F0.0226748
tp3437
Rp3438
ag4
(F12.912904
F0.022636366
tp3439
Rp3440
ag4
(F12.912821
F0.022597933
tp3441
Rp3442
ag4
(F12.912737
F0.022559499
tp3443
Rp3444
ag4
(F12.912653
F0.022521065
tp3445
Rp3446
ag4
(F12.91257
F0.022482631
tp3447
Rp3448
ag4
(F12.912486
F0.022444198
tp3449
Rp3450
ag4
(F12.912403
F0.022405764
tp3451
Rp3452
ag4
(F12.912319
F0.02236733
tp3453
Rp3454
ag4
(F12.912236
F0.022328896
tp3455
Rp3456
ag4
(F12.912152
F0.022290463
tp3457
Rp3458
ag4
(F12.912068
F0.022252029
tp3459
Rp3460
ag4
(F12.911985
F0.022213595
tp3461
Rp3462
ag4
(F12.911901
F0.02217547
tp3463
Rp3464
ag4
(F12.911816
F0.022137493
tp3465
Rp3466
ag4
(F12.911732
F0.022099517
tp3467
Rp3468
ag4
(F12.911648
F0.02206154
tp3469
Rp3470
ag4
(F12.911563
F0.022023563
tp3471
Rp3472
ag4
(F12.911478
F0.021986633
tp3473
Rp3474
ag4
(F12.911392
F0.021950152
tp3475
Rp3476
ag4
(F12.911306
F0.02191367
tp3477
Rp3478
ag4
(F12.91122
F0.021877188
tp3479
Rp3480
ag4
(F12.911134
F0.021840707
tp3481
Rp3482
ag4
(F12.911049
F0.021804225
tp3483
Rp3484
ag4
(F12.910963
F0.021767743
tp3485
Rp3486
ag4
(F12.910877
F0.021731262
tp3487
Rp3488
ag4
(F12.910791
F0.02169478
tp3489
Rp3490
ag4
(F12.910705
F0.021658299
tp3491
Rp3492
ag4
(F12.910619
F0.021621817
tp3493
Rp3494
ag4
(F12.910533
F0.021585335
tp3495
Rp3496
ag4
(F12.910447
F0.021548854
tp3497
Rp3498
ag4
(F12.910362
F0.021512372
tp3499
Rp3500
ag4
(F12.910276
F0.02147589
tp3501
Rp3502
ag4
(F12.91019
F0.021439409
tp3503
Rp3504
ag4
(F12.910104
F0.021402927
tp3505
Rp3506
ag4
(F12.910018
F0.021366445
tp3507
Rp3508
ag4
(F12.909932
F0.021329964
tp3509
Rp3510
ag4
(F12.909846
F0.021293482
tp3511
Rp3512
ag4
(F12.909765
F0.021258119
tp3513
Rp3514
ag4
(F12.909686
F0.021223035
tp3515
Rp3516
ag4
(F12.909606
F0.021187951
tp3517
Rp3518
ag4
(F12.909526
F0.021152867
tp3519
Rp3520
ag4
(F12.909446
F0.021117783
tp3521
Rp3522
ag4
(F12.909368
F0.0210831
tp3523
Rp3524
ag4
(F12.909291
F0.021048502
tp3525
Rp3526
ag4
(F12.909214
F0.021013905
tp3527
Rp3528
ag4
(F12.909136
F0.020979307
tp3529
Rp3530
ag4
(F12.909059
F0.020944709
tp3531
Rp3532
ag4
(F12.908981
F0.020910111
tp3533
Rp3534
ag4
(F12.908904
F0.020875513
tp3535
Rp3536
ag4
(F12.908826
F0.020840915
tp3537
Rp3538
ag4
(F12.908749
F0.020806317
tp3539
Rp3540
ag4
(F12.908671
F0.020771719
tp3541
Rp3542
ag4
(F12.908594
F0.020737122
tp3543
Rp3544
ag4
(F12.908517
F0.020702524
tp3545
Rp3546
ag4
(F12.908439
F0.020667926
tp3547
Rp3548
ag4
(F12.908362
F0.020633329
tp3549
Rp3550
ag4
(F12.908284
F0.020598731
tp3551
Rp3552
ag4
(F12.908207
F0.020564413
tp3553
Rp3554
ag4
(F12.908129
F0.020530125
tp3555
Rp3556
ag4
(F12.908052
F0.020495838
tp3557
Rp3558
ag4
(F12.907974
F0.020461551
tp3559
Rp3560
ag4
(F12.907897
F0.020427264
tp3561
Rp3562
ag4
(F12.907821
F0.020394321
tp3563
Rp3564
ag4
(F12.907745
F0.020361488
tp3565
Rp3566
ag4
(F12.907669
F0.020328654
tp3567
Rp3568
ag4
(F12.907593
F0.020295821
tp3569
Rp3570
ag4
(F12.907517
F0.020262987
tp3571
Rp3572
ag4
(F12.907441
F0.020230154
tp3573
Rp3574
ag4
(F12.907364
F0.02019732
tp3575
Rp3576
ag4
(F12.907287
F0.020164487
tp3577
Rp3578
ag4
(F12.907211
F0.020131653
tp3579
Rp3580
ag4
(F12.907134
F0.02009882
tp3581
Rp3582
ag4
(F12.907058
F0.020065986
tp3583
Rp3584
ag4
(F12.906982
F0.020033153
tp3585
Rp3586
ag4
(F12.906906
F0.020000319
tp3587
Rp3588
ag4
(F12.90683
F0.019967486
tp3589
Rp3590
ag4
(F12.906754
F0.019934652
tp3591
Rp3592
ag4
(F12.906678
F0.019901819
tp3593
Rp3594
ag4
(F12.906601
F0.019868985
tp3595
Rp3596
ag4
(F12.906524
F0.019836152
tp3597
Rp3598
ag4
(F12.906448
F0.019803318
tp3599
Rp3600
ag4
(F12.906371
F0.019770508
tp3601
Rp3602
ag4
(F12.906296
F0.019738596
tp3603
Rp3604
ag4
(F12.906221
F0.019706684
tp3605
Rp3606
ag4
(F12.906146
F0.019674772
tp3607
Rp3608
ag4
(F12.90607
F0.01964286
tp3609
Rp3610
ag4
(F12.905995
F0.019610987
tp3611
Rp3612
ag4
(F12.90592
F0.019579866
tp3613
Rp3614
ag4
(F12.905845
F0.019548745
tp3615
Rp3616
ag4
(F12.90577
F0.019517624
tp3617
Rp3618
ag4
(F12.905695
F0.019486503
tp3619
Rp3620
ag4
(F12.90562
F0.019455382
tp3621
Rp3622
ag4
(F12.905544
F0.019424262
tp3623
Rp3624
ag4
(F12.905469
F0.019393141
tp3625
Rp3626
ag4
(F12.905394
F0.019362021
tp3627
Rp3628
ag4
(F12.905319
F0.0193309
tp3629
Rp3630
ag4
(F12.905244
F0.019299779
tp3631
Rp3632
ag4
(F12.905169
F0.019268659
tp3633
Rp3634
ag4
(F12.905094
F0.019237538
tp3635
Rp3636
ag4
(F12.905018
F0.019206417
tp3637
Rp3638
ag4
(F12.904943
F0.019175296
tp3639
Rp3640
ag4
(F12.904868
F0.019144175
tp3641
Rp3642
ag4
(F12.904793
F0.019113054
tp3643
Rp3644
ag4
(F12.904718
F0.019081934
tp3645
Rp3646
ag4
(F12.904643
F0.019050813
tp3647
Rp3648
ag4
(F12.904568
F0.019019692
tp3649
Rp3650
ag4
(F12.904493
F0.018988768
tp3651
Rp3652
ag4
(F12.904422
F0.018958956
tp3653
Rp3654
ag4
(F12.90435
F0.018929143
tp3655
Rp3656
ag4
(F12.904279
F0.018899331
tp3657
Rp3658
ag4
(F12.904208
F0.018869518
tp3659
Rp3660
ag4
(F12.904137
F0.018839755
tp3661
Rp3662
ag4
(F12.904066
F0.018810227
tp3663
Rp3664
ag4
(F12.903996
F0.018780698
tp3665
Rp3666
ag4
(F12.903925
F0.01875117
tp3667
Rp3668
ag4
(F12.903854
F0.018721641
tp3669
Rp3670
ag4
(F12.903784
F0.018692112
tp3671
Rp3672
ag4
(F12.903713
F0.018662583
tp3673
Rp3674
ag4
(F12.903643
F0.018633054
tp3675
Rp3676
ag4
(F12.903572
F0.018603525
tp3677
Rp3678
ag4
(F12.903502
F0.018573996
tp3679
Rp3680
ag4
(F12.903431
F0.018544467
tp3681
Rp3682
ag4
(F12.903361
F0.018514938
tp3683
Rp3684
ag4
(F12.90329
F0.018485409
tp3685
Rp3686
ag4
(F12.90322
F0.01845588
tp3687
Rp3688
ag4
(F12.903149
F0.018426351
tp3689
Rp3690
ag4
(F12.903079
F0.018396835
tp3691
Rp3692
ag4
(F12.903009
F0.018367355
tp3693
Rp3694
ag4
(F12.902939
F0.018337875
tp3695
Rp3696
ag4
(F12.902869
F0.018308396
tp3697
Rp3698
ag4
(F12.9028
F0.018278916
tp3699
Rp3700
ag4
(F12.902731
F0.018249844
tp3701
Rp3702
ag4
(F12.902664
F0.018221845
tp3703
Rp3704
ag4
(F12.902597
F0.018193846
tp3705
Rp3706
ag4
(F12.902531
F0.018165847
tp3707
Rp3708
ag4
(F12.902464
F0.018137848
tp3709
Rp3710
ag4
(F12.902397
F0.01810985
tp3711
Rp3712
ag4
(F12.902331
F0.018081851
tp3713
Rp3714
ag4
(F12.902265
F0.018053852
tp3715
Rp3716
ag4
(F12.902199
F0.018025853
tp3717
Rp3718
ag4
(F12.902134
F0.017997854
tp3719
Rp3720
ag4
(F12.902068
F0.017969856
tp3721
Rp3722
ag4
(F12.902002
F0.017941857
tp3723
Rp3724
ag4
(F12.901936
F0.017913859
tp3725
Rp3726
ag4
(F12.90187
F0.01788586
tp3727
Rp3728
ag4
(F12.901804
F0.017857862
tp3729
Rp3730
ag4
(F12.901738
F0.017829863
tp3731
Rp3732
ag4
(F12.901672
F0.017801864
tp3733
Rp3734
ag4
(F12.901606
F0.017773865
tp3735
Rp3736
ag4
(F12.90154
F0.017745867
tp3737
Rp3738
ag4
(F12.901474
F0.017717868
tp3739
Rp3740
ag4
(F12.901408
F0.017689958
tp3741
Rp3742
ag4
(F12.901342
F0.017662197
tp3743
Rp3744
ag4
(F12.901276
F0.017634435
tp3745
Rp3746
ag4
(F12.90121
F0.017606674
tp3747
Rp3748
ag4
(F12.901144
F0.017578912
tp3749
Rp3750
ag4
(F12.901079
F0.017551634
tp3751
Rp3752
ag4
(F12.901014
F0.017525082
tp3753
Rp3754
ag4
(F12.900948
F0.017498529
tp3755
Rp3756
ag4
(F12.900883
F0.017471977
tp3757
Rp3758
ag4
(F12.900818
F0.017445424
tp3759
Rp3760
ag4
(F12.900753
F0.017418872
tp3761
Rp3762
ag4
(F12.900688
F0.017392319
tp3763
Rp3764
ag4
(F12.900623
F0.017365767
tp3765
Rp3766
ag4
(F12.900557
F0.017339214
tp3767
Rp3768
ag4
(F12.900492
F0.017312662
tp3769
Rp3770
ag4
(F12.900427
F0.017286109
tp3771
Rp3772
ag4
(F12.900363
F0.017259557
tp3773
Rp3774
ag4
(F12.900299
F0.017233005
tp3775
Rp3776
ag4
(F12.900234
F0.017206453
tp3777
Rp3778
ag4
(F12.90017
F0.017179901
tp3779
Rp3780
ag4
(F12.900105
F0.017153348
tp3781
Rp3782
ag4
(F12.90004
F0.017126796
tp3783
Rp3784
ag4
(F12.899975
F0.017100243
tp3785
Rp3786
ag4
(F12.899909
F0.017073691
tp3787
Rp3788
ag4
(F12.899844
F0.017047138
tp3789
Rp3790
ag4
(F12.899779
F0.017020736
tp3791
Rp3792
ag4
(F12.899715
F0.016994484
tp3793
Rp3794
ag4
(F12.899651
F0.016968232
tp3795
Rp3796
ag4
(F12.899586
F0.01694198
tp3797
Rp3798
ag4
(F12.899522
F0.016915729
tp3799
Rp3800
ag4
(F12.899459
F0.016890043
tp3801
Rp3802
ag4
(F12.899399
F0.01686487
tp3803
Rp3804
ag4
(F12.899338
F0.016839696
tp3805
Rp3806
ag4
(F12.899278
F0.016814523
tp3807
Rp3808
ag4
(F12.899217
F0.01678935
tp3809
Rp3810
ag4
(F12.899157
F0.016764177
tp3811
Rp3812
ag4
(F12.899096
F0.016739004
tp3813
Rp3814
ag4
(F12.899035
F0.01671383
tp3815
Rp3816
ag4
(F12.898975
F0.016688657
tp3817
Rp3818
ag4
(F12.898914
F0.016663484
tp3819
Rp3820
ag4
(F12.898853
F0.016638311
tp3821
Rp3822
ag4
(F12.898792
F0.016613137
tp3823
Rp3824
ag4
(F12.898731
F0.016587964
tp3825
Rp3826
ag4
(F12.898669
F0.016562791
tp3827
Rp3828
ag4
(F12.898608
F0.016537618
tp3829
Rp3830
ag4
(F12.898547
F0.016512444
tp3831
Rp3832
ag4
(F12.898486
F0.016487271
tp3833
Rp3834
ag4
(F12.898426
F0.016462098
tp3835
Rp3836
ag4
(F12.898365
F0.016436925
tp3837
Rp3838
ag4
(F12.898305
F0.016411752
tp3839
Rp3840
ag4
(F12.898244
F0.016386736
tp3841
Rp3842
ag4
(F12.898184
F0.016361816
tp3843
Rp3844
ag4
(F12.898123
F0.016336895
tp3845
Rp3846
ag4
(F12.898062
F0.016311975
tp3847
Rp3848
ag4
(F12.898002
F0.016287054
tp3849
Rp3850
ag4
(F12.897942
F0.016262826
tp3851
Rp3852
ag4
(F12.897882
F0.01623897
tp3853
Rp3854
ag4
(F12.897822
F0.016215113
tp3855
Rp3856
ag4
(F12.897762
F0.016191257
tp3857
Rp3858
ag4
(F12.897702
F0.016167401
tp3859
Rp3860
ag4
(F12.897643
F0.016143545
tp3861
Rp3862
ag4
(F12.897583
F0.016119689
tp3863
Rp3864
ag4
(F12.897523
F0.016095833
tp3865
Rp3866
ag4
(F12.897463
F0.016071977
tp3867
Rp3868
ag4
(F12.897403
F0.016048121
tp3869
Rp3870
ag4
(F12.897344
F0.016024265
tp3871
Rp3872
ag4
(F12.897284
F0.016000409
tp3873
Rp3874
ag4
(F12.897224
F0.015976553
tp3875
Rp3876
ag4
(F12.897164
F0.015952697
tp3877
Rp3878
ag4
(F12.897104
F0.01592884
tp3879
Rp3880
ag4
(F12.897045
F0.015904984
tp3881
Rp3882
ag4
(F12.896985
F0.015881128
tp3883
Rp3884
ag4
(F12.896925
F0.015857271
tp3885
Rp3886
ag4
(F12.896865
F0.015833415
tp3887
Rp3888
ag4
(F12.896805
F0.015809558
tp3889
Rp3890
ag4
(F12.896746
F0.015785781
tp3891
Rp3892
ag4
(F12.896686
F0.01576203
tp3893
Rp3894
ag4
(F12.896626
F0.015738279
tp3895
Rp3896
ag4
(F12.896566
F0.015714528
tp3897
Rp3898
ag4
(F12.896506
F0.015690777
tp3899
Rp3900
ag4
(F12.89645
F0.015667914
tp3901
Rp3902
ag4
(F12.896395
F0.015645308
tp3903
Rp3904
ag4
(F12.89634
F0.015622701
tp3905
Rp3906
ag4
(F12.896284
F0.015600095
tp3907
Rp3908
ag4
(F12.896229
F0.015577489
tp3909
Rp3910
ag4
(F12.896173
F0.015554883
tp3911
Rp3912
ag4
(F12.896117
F0.015532277
tp3913
Rp3914
ag4
(F12.896061
F0.015509671
tp3915
Rp3916
ag4
(F12.896006
F0.015487065
tp3917
Rp3918
ag4
(F12.89595
F0.015464458
tp3919
Rp3920
ag4
(F12.895894
F0.015441852
tp3921
Rp3922
ag4
(F12.895838
F0.015419246
tp3923
Rp3924
ag4
(F12.895782
F0.01539664
tp3925
Rp3926
ag4
(F12.895726
F0.015374034
tp3927
Rp3928
ag4
(F12.89567
F0.015351428
tp3929
Rp3930
ag4
(F12.895614
F0.015328822
tp3931
Rp3932
ag4
(F12.895559
F0.015306215
tp3933
Rp3934
ag4
(F12.895504
F0.015283609
tp3935
Rp3936
ag4
(F12.895449
F0.015261003
tp3937
Rp3938
ag4
(F12.895394
F0.015238397
tp3939
Rp3940
ag4
(F12.895338
F0.015215791
tp3941
Rp3942
ag4
(F12.895282
F0.015193185
tp3943
Rp3944
ag4
(F12.895226
F0.015170579
tp3945
Rp3946
ag4
(F12.89517
F0.015147973
tp3947
Rp3948
ag4
(F12.895114
F0.015125367
tp3949
Rp3950
ag4
(F12.895058
F0.015103704
tp3951
Rp3952
ag4
(F12.895003
F0.015082146
tp3953
Rp3954
ag4
(F12.894948
F0.015060587
tp3955
Rp3956
ag4
(F12.894893
F0.015039029
tp3957
Rp3958
ag4
(F12.894838
F0.01501747
tp3959
Rp3960
ag4
(F12.894783
F0.01499603
tp3961
Rp3962
ag4
(F12.894729
F0.014974598
tp3963
Rp3964
ag4
(F12.894674
F0.014953167
tp3965
Rp3966
ag4
(F12.89462
F0.014931736
tp3967
Rp3968
ag4
(F12.894565
F0.014910305
tp3969
Rp3970
ag4
(F12.89451
F0.014888873
tp3971
Rp3972
ag4
(F12.894455
F0.014867442
tp3973
Rp3974
ag4
(F12.8944
F0.01484601
tp3975
Rp3976
ag4
(F12.894345
F0.014824579
tp3977
Rp3978
ag4
(F12.894289
F0.014803147
tp3979
Rp3980
ag4
(F12.894235
F0.014781716
tp3981
Rp3982
ag4
(F12.89418
F0.014760285
tp3983
Rp3984
ag4
(F12.894126
F0.014738853
tp3985
Rp3986
ag4
(F12.894072
F0.014717422
tp3987
Rp3988
ag4
(F12.894017
F0.014695991
tp3989
Rp3990
asS'ev'
p3991
(lp3992
F6500.0
aF6510.0503
aF6520.1005
aF6530.1508
aF6540.201
aF6550.2513
aF6560.3015
aF6570.3518
aF6580.402
aF6590.4523
aF6600.5025
aF6610.5528
aF6620.603
aF6630.6533
aF6640.7035
aF6650.7538
aF6660.804
aF6670.8543
aF6680.9045
aF6690.9548
aF6701.005
aF6711.0553
aF6721.1055
aF6731.1558
aF6741.206
aF6751.2563
aF6761.3065
aF6771.3568
aF6781.407
aF6791.4573
aF6801.5075
aF6811.5578
aF6821.608
aF6831.6583
aF6841.7085
aF6851.7588
aF6861.809
aF6871.8593
aF6881.9095
aF6891.9598
aF6902.0101
aF6912.0603
aF6922.1106
aF6932.1608
aF6942.2111
aF6952.2613
aF6962.3116
aF6972.3618
aF6982.4121
aF6992.4623
aF7002.5126
aF7012.5628
aF7022.6131
aF7032.6633
aF7042.7136
aF7052.7638
aF7062.8141
aF7072.8643
aF7082.9146
aF7092.9648
aF7103.0151
aF7113.0653
aF7123.1156
aF7133.1658
aF7143.2161
aF7153.2663
aF7163.3166
aF7173.3668
aF7183.4171
aF7193.4673
aF7203.5176
aF7213.5678
aF7223.6181
aF7233.6683
aF7243.7186
aF7253.7688
aF7263.8191
aF7273.8693
aF7283.9196
aF7293.9698
aF7304.0201
aF7314.0704
aF7324.1206
aF7334.1709
aF7344.2211
aF7354.2714
aF7364.3216
aF7374.3719
aF7384.4221
aF7394.4724
aF7404.5226
aF7414.5729
aF7424.6231
aF7434.6734
aF7444.7236
aF7454.7739
aF7464.8241
aF7474.8744
aF7484.9246
aF7494.9749
aF7505.0251
aF7515.0754
aF7525.1256
aF7535.1759
aF7545.2261
aF7555.2764
aF7565.3266
aF7575.3769
aF7585.4271
aF7595.4774
aF7605.5276
aF7615.5779
aF7625.6281
aF7635.6784
aF7645.7286
aF7655.7789
aF7665.8291
aF7675.8794
aF7685.9296
aF7695.9799
aF7706.0302
aF7716.0804
aF7726.1307
aF7736.1809
aF7746.2312
aF7756.2814
aF7766.3317
aF7776.3819
aF7786.4322
aF7796.4824
aF7806.5327
aF7816.5829
aF7826.6332
aF7836.6834
aF7846.7337
aF7856.7839
aF7866.8342
aF7876.8844
aF7886.9347
aF7896.9849
aF7907.0352
aF7917.0854
aF7927.1357
aF7937.1859
aF7947.2362
aF7957.2864
aF7967.3367
aF7977.3869
aF7987.4372
aF7997.4874
aF8007.5377
aF8017.5879
aF8027.6382
aF8037.6884
aF8047.7387
aF8057.7889
aF8067.8392
aF8077.8894
aF8087.9397
aF8097.9899
aF8108.0402
aF8118.0905
aF8128.1407
aF8138.191
aF8148.2412
aF8158.2915
aF8168.3417
aF8178.392
aF8188.4422
aF8198.4925
aF8208.5427
aF8218.593
aF8228.6432
aF8238.6935
aF8248.7437
aF8258.794
aF8268.8442
aF8278.8945
aF8288.9447
aF8298.995
aF8309.0452
aF8319.0955
aF8329.1457
aF8339.196
aF8349.2462
aF8359.2965
aF8369.3467
aF8379.397
aF8389.4472
aF8399.4975
aF8409.5477
aF8419.598
aF8429.6482
aF8439.6985
aF8449.7487
aF8459.799
aF8469.8492
aF8479.8995
aF8489.9497
aF8500.0
aF8510.0503
aF8520.1005
aF8530.1508
aF8540.201
aF8550.2513
aF8560.3015
aF8570.3518
aF8580.402
aF8590.4523
aF8600.5025
aF8610.5528
aF8620.603
aF8630.6533
aF8640.7035
aF8650.7538
aF8660.804
aF8670.8543
aF8680.9045
aF8690.9548
aF8701.005
aF8711.0553
aF8721.1055
aF8731.1558
aF8741.206
aF8751.2563
aF8761.3065
aF8771.3568
aF8781.407
aF8791.4573
aF8801.5075
aF8811.5578
aF8821.608
aF8831.6583
aF8841.7085
aF8851.7588
aF8861.809
aF8871.8593
aF8881.9095
aF8891.9598
aF8902.0101
aF8912.0603
aF8922.1106
aF8932.1608
aF8942.2111
aF8952.2613
aF8962.3116
aF8972.3618
aF8982.4121
aF8992.4623
aF9002.5126
aF9012.5628
aF9022.6131
aF9032.6633
aF9042.7136
aF9052.7638
aF9062.8141
aF9072.8643
aF9082.9146
aF9092.9648
aF9103.0151
aF9113.0653
aF9123.1156
aF9133.1658
aF9143.2161
aF9153.2663
aF9163.3166
aF9173.3668
aF9183.4171
aF9193.4673
aF9203.5176
aF9213.5678
aF9223.6181
aF9233.6683
aF9243.7186
aF9253.7688
aF9263.8191
aF9273.8693
aF9283.9196
aF9293.9698
aF9304.0201
aF9314.0704
aF9324.1206
aF9334.1709
aF9344.2211
aF9354.2714
aF9364.3216
aF9374.3719
aF9384.4221
aF9394.4724
aF9404.5226
aF9414.5729
aF9424.6231
aF9434.6734
aF9444.7236
aF9454.7739
aF9464.8241
aF9474.8744
aF9484.9246
aF9494.9749
aF9505.0251
aF9515.0754
aF9525.1256
aF9535.1759
aF9545.2261
aF9555.2764
aF9565.3266
aF9575.3769
aF9585.4271
aF9595.4774
aF9605.5276
aF9615.5779
aF9625.6281
aF9635.6784
aF9645.7286
aF9655.7789
aF9665.8291
aF9675.8794
aF9685.9296
aF9695.9799
aF9706.0302
aF9716.0804
aF9726.1307
aF9736.1809
aF9746.2312
aF9756.2814
aF9766.3317
aF9776.3819
aF9786.4322
aF9796.4824
aF9806.5327
aF9816.5829
aF9826.6332
aF9836.6834
aF9846.7337
aF9856.7839
aF9866.8342
aF9876.8844
aF9886.9347
aF9896.9849
aF9907.0352
aF9917.0854
aF9927.1357
aF9937.1859
aF9947.2362
aF9957.2864
aF9967.3367
aF9977.3869
aF9987.4372
aF9997.4874
aF10007.538
aF10017.588
aF10027.638
aF10037.688
aF10047.739
aF10057.789
aF10067.839
aF10077.889
aF10087.94
aF10097.99
aF10108.04
aF10118.09
aF10128.141
aF10138.191
aF10148.241
aF10158.291
aF10168.342
aF10178.392
aF10188.442
aF10198.492
aF10208.543
aF10218.593
aF10228.643
aF10238.693
aF10248.744
aF10258.794
aF10268.844
aF10278.894
aF10288.945
aF10298.995
aF10309.045
aF10319.095
aF10329.146
aF10339.196
aF10349.246
aF10359.296
aF10369.347
aF10379.397
aF10389.447
aF10399.497
aF10409.548
aF10419.598
aF10429.648
aF10439.698
aF10449.749
aF10459.799
aF10469.849
aF10479.899
aF10489.95
aF10500.0
aF10510.05
aF10520.101
aF10530.151
aF10540.201
aF10550.251
aF10560.302
aF10570.352
aF10580.402
aF10590.452
aF10600.503
aF10610.553
aF10620.603
aF10630.653
aF10640.704
aF10650.754
aF10660.804
aF10670.854
aF10680.905
aF10690.955
aF10701.005
aF10711.055
aF10721.106
aF10731.156
aF10741.206
aF10751.256
aF10761.307
aF10771.357
aF10781.407
aF10791.457
aF10801.508
aF10811.558
aF10821.608
aF10831.658
aF10841.709
aF10851.759
aF10861.809
aF10871.859
aF10881.91
aF10891.96
aF10902.01
aF10912.06
aF10922.111
aF10932.161
aF10942.211
aF10952.261
aF10962.312
aF10972.362
aF10982.412
aF10992.462
aF11002.513
aF11012.563
aF11022.613
aF11032.663
aF11042.714
aF11052.764
aF11062.814
aF11072.864
aF11082.915
aF11092.965
aF11103.015
aF11113.065
aF11123.116
aF11133.166
aF11143.216
aF11153.266
aF11163.317
aF11173.367
aF11183.417
aF11193.467
aF11203.518
aF11213.568
aF11223.618
aF11233.668
aF11243.719
aF11253.769
aF11263.819
aF11273.869
aF11283.92
aF11293.97
aF11304.02
aF11314.07
aF11324.121
aF11334.171
aF11344.221
aF11354.271
aF11364.322
aF11374.372
aF11384.422
aF11394.472
aF11404.523
aF11414.573
aF11424.623
aF11434.673
aF11444.724
aF11454.774
aF11464.824
aF11474.874
aF11484.925
aF11494.975
aF11505.025
aF11515.075
aF11525.126
aF11535.176
aF11545.226
aF11555.276
aF11565.327
aF11575.377
aF11585.427
aF11595.477
aF11605.528
aF11615.578
aF11625.628
aF11635.678
aF11645.729
aF11655.779
aF11665.829
aF11675.879
aF11685.93
aF11695.98
aF11706.03
aF11716.08
aF11726.131
aF11736.181
aF11746.231
aF11756.281
aF11766.332
aF11776.382
aF11786.432
aF11796.482
aF11806.533
aF11816.583
aF11826.633
aF11836.683
aF11846.734
aF11856.784
aF11866.834
aF11876.884
aF11886.935
aF11896.985
aF11907.035
aF11917.085
aF11927.136
aF11937.186
aF11947.236
aF11957.286
aF11967.337
aF11977.387
aF11987.437
aF11997.487
aF12007.538
aF12017.588
aF12027.638
aF12037.688
aF12047.739
aF12057.789
aF12067.839
aF12077.889
aF12087.94
aF12097.99
aF12108.04
aF12118.09
aF12128.141
aF12138.191
aF12148.241
aF12158.291
aF12168.342
aF12178.392
aF12188.442
aF12198.492
aF12208.543
aF12218.593
aF12228.643
aF12238.693
aF12248.744
aF12258.794
aF12268.844
aF12278.894
aF12288.945
aF12298.995
aF12309.045
aF12319.095
aF12329.146
aF12339.196
aF12349.246
aF12359.296
aF12369.347
aF12379.397
aF12389.447
aF12399.497
aF12409.548
aF12419.598
aF12429.648
aF12439.698
aF12449.749
aF12459.799
aF12469.849
aF12479.899
aF12489.95
aF12500.0
aF12510.05
aF12520.101
aF12530.151
aF12540.201
aF12550.251
aF12560.302
aF12570.352
aF12580.402
aF12590.452
aF12600.503
aF12610.553
aF12620.603
aF12630.653
aF12640.704
aF12650.754
aF12660.804
aF12670.854
aF12680.905
aF12690.955
aF12701.005
aF12711.055
aF12721.106
aF12731.156
aF12741.206
aF12751.256
aF12761.307
aF12771.357
aF12781.407
aF12791.457
aF12801.508
aF12811.558
aF12821.608
aF12831.658
aF12841.709
aF12851.759
aF12861.809
aF12871.859
aF12881.91
aF12891.96
aF12902.01
aF12912.06
aF12922.111
aF12932.161
aF12942.211
aF12952.261
aF12962.312
aF12972.362
aF12982.412
aF12992.462
aF13002.513
aF13012.563
aF13022.613
aF13032.663
aF13042.714
aF13052.764
aF13062.814
aF13072.864
aF13082.915
aF13092.965
aF13103.015
aF13113.065
aF13123.116
aF13133.166
aF13143.216
aF13153.266
aF13163.317
aF13173.367
aF13183.417
aF13193.467
aF13203.518
aF13213.568
aF13223.618
aF13233.668
aF13243.719
aF13253.769
aF13263.819
aF13273.869
aF13283.92
aF13293.97
aF13304.02
aF13314.07
aF13324.121
aF13334.171
aF13344.221
aF13354.271
aF13364.322
aF13374.372
aF13384.422
aF13394.472
aF13404.523
aF13414.573
aF13424.623
aF13434.673
aF13444.724
aF13454.774
aF13464.824
aF13474.874
aF13484.925
aF13494.975
aF13505.025
aF13515.075
aF13525.126
aF13535.176
aF13545.226
aF13555.276
aF13565.327
aF13575.377
aF13585.427
aF13595.477
aF13605.528
aF13615.578
aF13625.628
aF13635.678
aF13645.729
aF13655.779
aF13665.829
aF13675.879
aF13685.93
aF13695.98
aF13706.03
aF13716.08
aF13726.131
aF13736.181
aF13746.231
aF13756.281
aF13766.332
aF13776.382
aF13786.432
aF13796.482
aF13806.533
aF13816.583
aF13826.633
aF13836.683
aF13846.734
aF13856.784
aF13866.834
aF13876.884
aF13886.935
aF13896.985
aF13907.035
aF13917.085
aF13927.136
aF13937.186
aF13947.236
aF13957.286
aF13967.337
aF13977.387
aF13987.437
aF13997.487
aF14007.538
aF14017.588
aF14027.638
aF14037.688
aF14047.739
aF14057.789
aF14067.839
aF14077.889
aF14087.94
aF14097.99
aF14108.04
aF14118.09
aF14128.141
aF14138.191
aF14148.241
aF14158.291
aF14168.342
aF14178.392
aF14188.442
aF14198.492
aF14208.543
aF14218.593
aF14228.643
aF14238.693
aF14248.744
aF14258.794
aF14268.844
aF14278.894
aF14288.945
aF14298.995
aF14309.045
aF14319.095
aF14329.146
aF14339.196
aF14349.246
aF14359.296
aF14369.347
aF14379.397
aF14389.447
aF14399.497
aF14409.548
aF14419.598
aF14429.648
aF14439.698
aF14449.749
aF14459.799
aF14469.849
aF14479.899
aF14489.95
aF14500.0
aF14510.05
aF14520.101
aF14530.151
aF14540.201
aF14550.251
aF14560.302
aF14570.352
aF14580.402
aF14590.452
aF14600.503
aF14610.553
aF14620.603
aF14630.653
aF14640.704
aF14650.754
aF14660.804
aF14670.854
aF14680.905
aF14690.955
aF14701.005
aF14711.055
aF14721.106
aF14731.156
aF14741.206
aF14751.256
aF14761.307
aF14771.357
aF14781.407
aF14791.457
aF14801.508
aF14811.558
aF14821.608
aF14831.658
aF14841.709
aF14851.759
aF14861.809
aF14871.859
aF14881.91
aF14891.96
aF14902.01
aF14912.06
aF14922.111
aF14932.161
aF14942.211
aF14952.261
aF14962.312
aF14972.362
aF14982.412
aF14992.462
aF15002.513
aF15012.563
aF15022.613
aF15032.663
aF15042.714
aF15052.764
aF15062.814
aF15072.864
aF15082.915
aF15092.965
aF15103.015
aF15113.065
aF15123.116
aF15133.166
aF15143.216
aF15153.266
aF15163.317
aF15173.367
aF15183.417
aF15193.467
aF15203.518
aF15213.568
aF15223.618
aF15233.668
aF15243.719
aF15253.769
aF15263.819
aF15273.869
aF15283.92
aF15293.97
aF15304.02
aF15314.07
aF15324.121
aF15334.171
aF15344.221
aF15354.271
aF15364.322
aF15374.372
aF15384.422
aF15394.472
aF15404.523
aF15414.573
aF15424.623
aF15434.673
aF15444.724
aF15454.774
aF15464.824
aF15474.874
aF15484.925
aF15494.975
aF15505.025
aF15515.075
aF15525.126
aF15535.176
aF15545.226
aF15555.276
aF15565.327
aF15575.377
aF15585.427
aF15595.477
aF15605.528
aF15615.578
aF15625.628
aF15635.678
aF15645.729
aF15655.779
aF15665.829
aF15675.879
aF15685.93
aF15695.98
aF15706.03
aF15716.08
aF15726.131
aF15736.181
aF15746.231
aF15756.281
aF15766.332
aF15776.382
aF15786.432
aF15796.482
aF15806.533
aF15816.583
aF15826.633
aF15836.683
aF15846.734
aF15856.784
aF15866.834
aF15876.884
aF15886.935
aF15896.985
aF15907.035
aF15917.085
aF15927.136
aF15937.186
aF15947.236
aF15957.286
aF15967.337
aF15977.387
aF15987.437
aF15997.487
aF16007.538
aF16017.588
aF16027.638
aF16037.688
aF16047.739
aF16057.789
aF16067.839
aF16077.889
aF16087.94
aF16097.99
aF16108.04
aF16118.09
aF16128.141
aF16138.191
aF16148.241
aF16158.291
aF16168.342
aF16178.392
aF16188.442
aF16198.492
aF16208.543
aF16218.593
aF16228.643
aF16238.693
aF16248.744
aF16258.794
aF16268.844
aF16278.894
aF16288.945
aF16298.995
aF16309.045
aF16319.095
aF16329.146
aF16339.196
aF16349.246
aF16359.296
aF16369.347
aF16379.397
aF16389.447
aF16399.497
aF16409.548
aF16419.598
aF16429.648
aF16439.698
aF16449.749
aF16459.799
aF16469.849
aF16479.899
aF16489.95
aF16500.0
asS'f000'
p3993
(lp3994
g4
(F48.225182
F0.12282284
tp3995
Rp3996
ag4
(F48.224574
F0.12241315
tp3997
Rp3998
ag4
(F48.223965
F0.12200347
tp3999
Rp4000
ag4
(F48.223357
F0.12159378
tp4001
Rp4002
ag4
(F48.222749
F0.12118409
tp4003
Rp4004
ag4
(F48.222142
F0.12077473
tp4005
Rp4006
ag4
(F48.221556
F0.12037847
tp4007
Rp4008
ag4
(F48.22097
F0.1199822
tp4009
Rp4010
ag4
(F48.220384
F0.11958594
tp4011
Rp4012
ag4
(F48.219799
F0.11918968
tp4013
Rp4014
ag4
(F48.219213
F0.11879362
tp4015
Rp4016
ag4
(F48.218633
F0.11840149
tp4017
Rp4018
ag4
(F48.218052
F0.11800936
tp4019
Rp4020
ag4
(F48.217472
F0.11761724
tp4021
Rp4022
ag4
(F48.216891
F0.11722511
tp4023
Rp4024
ag4
(F48.216312
F0.1168341
tp4025
Rp4026
ag4
(F48.215751
F0.11645691
tp4027
Rp4028
ag4
(F48.21519
F0.11607972
tp4029
Rp4030
ag4
(F48.214628
F0.11570253
tp4031
Rp4032
ag4
(F48.214067
F0.11532534
tp4033
Rp4034
ag4
(F48.213506
F0.11494828
tp4035
Rp4036
ag4
(F48.212945
F0.11457235
tp4037
Rp4038
ag4
(F48.212385
F0.11419642
tp4039
Rp4040
ag4
(F48.211824
F0.11382049
tp4041
Rp4042
ag4
(F48.211264
F0.11344457
tp4043
Rp4044
ag4
(F48.210705
F0.11307076
tp4045
Rp4046
ag4
(F48.21016
F0.11271182
tp4047
Rp4048
ag4
(F48.209615
F0.11235288
tp4049
Rp4050
ag4
(F48.20907
F0.11199394
tp4051
Rp4052
ag4
(F48.208525
F0.111635
tp4053
Rp4054
ag4
(F48.207979
F0.11127606
tp4055
Rp4056
ag4
(F48.207433
F0.11091713
tp4057
Rp4058
ag4
(F48.206887
F0.11055819
tp4059
Rp4060
ag4
(F48.206341
F0.11019925
tp4061
Rp4062
ag4
(F48.205796
F0.10984031
tp4063
Rp4064
ag4
(F48.205253
F0.10948406
tp4065
Rp4066
ag4
(F48.204729
F0.10914045
tp4067
Rp4068
ag4
(F48.204204
F0.10879685
tp4069
Rp4070
ag4
(F48.20368
F0.10845325
tp4071
Rp4072
ag4
(F48.203155
F0.10810965
tp4073
Rp4074
ag4
(F48.202631
F0.10776643
tp4075
Rp4076
ag4
(F48.202109
F0.10742479
tp4077
Rp4078
ag4
(F48.201587
F0.10708314
tp4079
Rp4080
ag4
(F48.201065
F0.10674149
tp4081
Rp4082
ag4
(F48.200543
F0.10639984
tp4083
Rp4084
ag4
(F48.200024
F0.10606065
tp4085
Rp4086
ag4
(F48.199517
F0.10572994
tp4087
Rp4088
ag4
(F48.19901
F0.10539923
tp4089
Rp4090
ag4
(F48.198504
F0.10506852
tp4091
Rp4092
ag4
(F48.197997
F0.10473781
tp4093
Rp4094
ag4
(F48.197492
F0.10440845
tp4095
Rp4096
ag4
(F48.196993
F0.10408314
tp4097
Rp4098
ag4
(F48.196493
F0.10375784
tp4099
Rp4100
ag4
(F48.195994
F0.10343254
tp4101
Rp4102
ag4
(F48.195495
F0.10310723
tp4103
Rp4104
ag4
(F48.194997
F0.10278374
tp4105
Rp4106
ag4
(F48.194504
F0.10246502
tp4107
Rp4108
ag4
(F48.19401
F0.1021463
tp4109
Rp4110
ag4
(F48.193516
F0.10182758
tp4111
Rp4112
ag4
(F48.193022
F0.10150886
tp4113
Rp4114
ag4
(F48.192531
F0.10119292
tp4115
Rp4116
ag4
(F48.192048
F0.10088346
tp4117
Rp4118
ag4
(F48.191564
F0.100574
tp4119
Rp4120
ag4
(F48.19108
F0.10026454
tp4121
Rp4122
ag4
(F48.190596
F0.099955082
tp4123
Rp4124
ag4
(F48.190113
F0.099646233
tp4125
Rp4126
ag4
(F48.18963
F0.099338649
tp4127
Rp4128
ag4
(F48.189148
F0.099031065
tp4129
Rp4130
ag4
(F48.188666
F0.098723481
tp4131
Rp4132
ag4
(F48.188184
F0.098415897
tp4133
Rp4134
ag4
(F48.187708
F0.098112885
tp4135
Rp4136
ag4
(F48.187245
F0.097818365
tp4137
Rp4138
ag4
(F48.186782
F0.097523845
tp4139
Rp4140
ag4
(F48.186319
F0.097229324
tp4141
Rp4142
ag4
(F48.185855
F0.096934804
tp4143
Rp4144
ag4
(F48.185393
F0.096640284
tp4145
Rp4146
ag4
(F48.18493
F0.096345765
tp4147
Rp4148
ag4
(F48.184468
F0.096051247
tp4149
Rp4150
ag4
(F48.184005
F0.095756728
tp4151
Rp4152
ag4
(F48.183543
F0.095462209
tp4153
Rp4154
ag4
(F48.183087
F0.0951723
tp4155
Rp4156
ag4
(F48.182641
F0.094889305
tp4157
Rp4158
ag4
(F48.182195
F0.09460631
tp4159
Rp4160
ag4
(F48.181748
F0.094323315
tp4161
Rp4162
ag4
(F48.181302
F0.094040321
tp4163
Rp4164
ag4
(F48.180858
F0.093758561
tp4165
Rp4166
ag4
(F48.180415
F0.093478473
tp4167
Rp4168
ag4
(F48.179973
F0.093198385
tp4169
Rp4170
ag4
(F48.17953
F0.092918298
tp4171
Rp4172
ag4
(F48.179088
F0.09263821
tp4173
Rp4174
ag4
(F48.178648
F0.092360737
tp4175
Rp4176
ag4
(F48.178212
F0.092086461
tp4177
Rp4178
ag4
(F48.177776
F0.091812186
tp4179
Rp4180
ag4
(F48.177339
F0.09153791
tp4181
Rp4182
ag4
(F48.176903
F0.091263634
tp4183
Rp4184
ag4
(F48.176471
F0.090992962
tp4185
Rp4186
ag4
(F48.176043
F0.090726271
tp4187
Rp4188
ag4
(F48.175615
F0.090459581
tp4189
Rp4190
ag4
(F48.175187
F0.090192891
tp4191
Rp4192
ag4
(F48.174759
F0.0899262
tp4193
Rp4194
ag4
(F48.174331
F0.089659711
tp4195
Rp4196
ag4
(F48.173903
F0.089393424
tp4197
Rp4198
ag4
(F48.173476
F0.089127136
tp4199
Rp4200
ag4
(F48.173048
F0.088860849
tp4201
Rp4202
ag4
(F48.17262
F0.088594561
tp4203
Rp4204
ag4
(F48.172203
F0.088334897
tp4205
Rp4206
ag4
(F48.171795
F0.088081225
tp4207
Rp4208
ag4
(F48.171387
F0.087827554
tp4209
Rp4210
ag4
(F48.170979
F0.087573882
tp4211
Rp4212
ag4
(F48.170571
F0.08732021
tp4213
Rp4214
ag4
(F48.170162
F0.087066538
tp4215
Rp4216
ag4
(F48.169754
F0.086812865
tp4217
Rp4218
ag4
(F48.169345
F0.086559192
tp4219
Rp4220
ag4
(F48.168936
F0.086305518
tp4221
Rp4222
ag4
(F48.168528
F0.086051845
tp4223
Rp4224
ag4
(F48.168126
F0.085802377
tp4225
Rp4226
ag4
(F48.16773
F0.085556017
tp4227
Rp4228
ag4
(F48.167333
F0.085309656
tp4229
Rp4230
ag4
(F48.166937
F0.085063296
tp4231
Rp4232
ag4
(F48.16654
F0.084816935
tp4233
Rp4234
ag4
(F48.166148
F0.084573632
tp4235
Rp4236
ag4
(F48.165759
F0.084332366
tp4237
Rp4238
ag4
(F48.165369
F0.084091101
tp4239
Rp4240
ag4
(F48.16498
F0.083849835
tp4241
Rp4242
ag4
(F48.16459
F0.08360857
tp4243
Rp4244
ag4
(F48.164202
F0.083368089
tp4245
Rp4246
ag4
(F48.163815
F0.083128078
tp4247
Rp4248
ag4
(F48.163428
F0.082888068
tp4249
Rp4250
ag4
(F48.16304
F0.082648057
tp4251
Rp4252
ag4
(F48.162653
F0.082408047
tp4253
Rp4254
ag4
(F48.162273
F0.082174779
tp4255
Rp4256
ag4
(F48.161896
F0.081945142
tp4257
Rp4258
ag4
(F48.16152
F0.081715506
tp4259
Rp4260
ag4
(F48.161143
F0.081485869
tp4261
Rp4262
ag4
(F48.160767
F0.081256233
tp4263
Rp4264
ag4
(F48.160391
F0.081026596
tp4265
Rp4266
ag4
(F48.160015
F0.080796959
tp4267
Rp4268
ag4
(F48.159639
F0.080567323
tp4269
Rp4270
ag4
(F48.159264
F0.080337686
tp4271
Rp4272
ag4
(F48.158888
F0.080108049
tp4273
Rp4274
ag4
(F48.158517
F0.079883001
tp4275
Rp4276
ag4
(F48.158147
F0.07965992
tp4277
Rp4278
ag4
(F48.157777
F0.079436838
tp4279
Rp4280
ag4
(F48.157408
F0.079213756
tp4281
Rp4282
ag4
(F48.157038
F0.078990675
tp4283
Rp4284
ag4
(F48.156673
F0.078770948
tp4285
Rp4286
ag4
(F48.15631
F0.078552494
tp4287
Rp4288
ag4
(F48.155946
F0.07833404
tp4289
Rp4290
ag4
(F48.155583
F0.078115586
tp4291
Rp4292
ag4
(F48.155219
F0.077897132
tp4293
Rp4294
ag4
(F48.154855
F0.07767887
tp4295
Rp4296
ag4
(F48.154491
F0.077460672
tp4297
Rp4298
ag4
(F48.154127
F0.077242474
tp4299
Rp4300
ag4
(F48.153763
F0.077024276
tp4301
Rp4302
ag4
(F48.153398
F0.076806079
tp4303
Rp4304
ag4
(F48.153048
F0.076595971
tp4305
Rp4306
ag4
(F48.152703
F0.076388213
tp4307
Rp4308
ag4
(F48.152357
F0.076180455
tp4309
Rp4310
ag4
(F48.152011
F0.075972697
tp4311
Rp4312
ag4
(F48.151665
F0.075764939
tp4313
Rp4314
ag4
(F48.151319
F0.075557181
tp4315
Rp4316
ag4
(F48.150974
F0.075349423
tp4317
Rp4318
ag4
(F48.150628
F0.075141665
tp4319
Rp4320
ag4
(F48.150282
F0.074933906
tp4321
Rp4322
ag4
(F48.149936
F0.074726148
tp4323
Rp4324
ag4
(F48.149595
F0.074521913
tp4325
Rp4326
ag4
(F48.149254
F0.074318424
tp4327
Rp4328
ag4
(F48.148914
F0.074114936
tp4329
Rp4330
ag4
(F48.148573
F0.073911447
tp4331
Rp4332
ag4
(F48.148233
F0.073707959
tp4333
Rp4334
ag4
(F48.147898
F0.073509476
tp4335
Rp4336
ag4
(F48.147563
F0.073311876
tp4337
Rp4338
ag4
(F48.147229
F0.073114276
tp4339
Rp4340
ag4
(F48.146895
F0.072916676
tp4341
Rp4342
ag4
(F48.14656
F0.072719076
tp4343
Rp4344
ag4
(F48.146226
F0.072521475
tp4345
Rp4346
ag4
(F48.145892
F0.072323874
tp4347
Rp4348
ag4
(F48.145558
F0.072126272
tp4349
Rp4350
ag4
(F48.145223
F0.071928671
tp4351
Rp4352
ag4
(F48.144889
F0.071731069
tp4353
Rp4354
ag4
(F48.144566
F0.071540159
tp4355
Rp4356
ag4
(F48.144245
F0.071349991
tp4357
Rp4358
ag4
(F48.143924
F0.071159824
tp4359
Rp4360
ag4
(F48.143603
F0.070969657
tp4361
Rp4362
ag4
(F48.143281
F0.07077949
tp4363
Rp4364
ag4
(F48.142964
F0.070591323
tp4365
Rp4366
ag4
(F48.142648
F0.070403318
tp4367
Rp4368
ag4
(F48.142331
F0.070215313
tp4369
Rp4370
ag4
(F48.142014
F0.070027309
tp4371
Rp4372
ag4
(F48.141698
F0.069839304
tp4373
Rp4374
ag4
(F48.141381
F0.069652056
tp4375
Rp4376
ag4
(F48.141064
F0.069464848
tp4377
Rp4378
ag4
(F48.140747
F0.06927764
tp4379
Rp4380
ag4
(F48.140431
F0.069090432
tp4381
Rp4382
ag4
(F48.140114
F0.068903224
tp4383
Rp4384
ag4
(F48.139802
F0.068724256
tp4385
Rp4386
ag4
(F48.13949
F0.068545499
tp4387
Rp4388
ag4
(F48.139178
F0.068366742
tp4389
Rp4390
ag4
(F48.138866
F0.068187985
tp4391
Rp4392
ag4
(F48.138554
F0.068009228
tp4393
Rp4394
ag4
(F48.138242
F0.067830472
tp4395
Rp4396
ag4
(F48.137929
F0.067651716
tp4397
Rp4398
ag4
(F48.137617
F0.067472961
tp4399
Rp4400
ag4
(F48.137305
F0.067294205
tp4401
Rp4402
ag4
(F48.136993
F0.067115528
tp4403
Rp4404
ag4
(F48.13669
F0.066939887
tp4405
Rp4406
ag4
(F48.136386
F0.066764247
tp4407
Rp4408
ag4
(F48.136083
F0.066588606
tp4409
Rp4410
ag4
(F48.135779
F0.066412966
tp4411
Rp4412
ag4
(F48.135476
F0.066237609
tp4413
Rp4414
ag4
(F48.135186
F0.066067648
tp4415
Rp4416
ag4
(F48.134896
F0.065897686
tp4417
Rp4418
ag4
(F48.134606
F0.065727724
tp4419
Rp4420
ag4
(F48.134317
F0.065557763
tp4421
Rp4422
ag4
(F48.134027
F0.065387801
tp4423
Rp4424
ag4
(F48.133737
F0.065217841
tp4425
Rp4426
ag4
(F48.133447
F0.065047881
tp4427
Rp4428
ag4
(F48.133157
F0.064877921
tp4429
Rp4430
ag4
(F48.132867
F0.064707961
tp4431
Rp4432
ag4
(F48.132578
F0.064538477
tp4433
Rp4434
ag4
(F48.132291
F0.064373276
tp4435
Rp4436
ag4
(F48.132004
F0.064208075
tp4437
Rp4438
ag4
(F48.131718
F0.064042875
tp4439
Rp4440
ag4
(F48.131431
F0.063877674
tp4441
Rp4442
ag4
(F48.131144
F0.063712908
tp4443
Rp4444
ag4
(F48.13086
F0.063551186
tp4445
Rp4446
ag4
(F48.130575
F0.063389464
tp4447
Rp4448
ag4
(F48.130291
F0.063227743
tp4449
Rp4450
ag4
(F48.130006
F0.063066021
tp4451
Rp4452
ag4
(F48.129722
F0.062904299
tp4453
Rp4454
ag4
(F48.129437
F0.062742577
tp4455
Rp4456
ag4
(F48.129151
F0.062580856
tp4457
Rp4458
ag4
(F48.128866
F0.062419134
tp4459
Rp4460
ag4
(F48.128581
F0.062257412
tp4461
Rp4462
ag4
(F48.128298
F0.06209674
tp4463
Rp4464
ag4
(F48.128025
F0.06194102
tp4465
Rp4466
ag4
(F48.127752
F0.061785299
tp4467
Rp4468
ag4
(F48.127479
F0.061629578
tp4469
Rp4470
ag4
(F48.127206
F0.061473857
tp4471
Rp4472
ag4
(F48.126934
F0.061318522
tp4473
Rp4474
ag4
(F48.126664
F0.061164729
tp4475
Rp4476
ag4
(F48.126395
F0.061010936
tp4477
Rp4478
ag4
(F48.126126
F0.060857143
tp4479
Rp4480
ag4
(F48.125857
F0.060703351
tp4481
Rp4482
ag4
(F48.125588
F0.060549558
tp4483
Rp4484
ag4
(F48.125318
F0.060395765
tp4485
Rp4486
ag4
(F48.125048
F0.060241973
tp4487
Rp4488
ag4
(F48.124778
F0.06008818
tp4489
Rp4490
ag4
(F48.124508
F0.059934387
tp4491
Rp4492
ag4
(F48.124241
F0.059782289
tp4493
Rp4494
ag4
(F48.123981
F0.059635275
tp4495
Rp4496
ag4
(F48.123721
F0.059488262
tp4497
Rp4498
ag4
(F48.123461
F0.059341248
tp4499
Rp4500
ag4
(F48.123201
F0.059194234
tp4501
Rp4502
ag4
(F48.122941
F0.05904745
tp4503
Rp4504
ag4
(F48.122681
F0.058901274
tp4505
Rp4506
ag4
(F48.122421
F0.058755097
tp4507
Rp4508
ag4
(F48.122161
F0.05860892
tp4509
Rp4510
ag4
(F48.121901
F0.058462744
tp4511
Rp4512
ag4
(F48.121642
F0.058316567
tp4513
Rp4514
ag4
(F48.121382
F0.058170391
tp4515
Rp4516
ag4
(F48.121123
F0.058024214
tp4517
Rp4518
ag4
(F48.120864
F0.057878037
tp4519
Rp4520
ag4
(F48.120605
F0.057731861
tp4521
Rp4522
ag4
(F48.120349
F0.057587959
tp4523
Rp4524
ag4
(F48.120099
F0.057448783
tp4525
Rp4526
ag4
(F48.119849
F0.057309607
tp4527
Rp4528
ag4
(F48.119599
F0.057170431
tp4529
Rp4530
ag4
(F48.119349
F0.057031255
tp4531
Rp4532
ag4
(F48.119099
F0.056892137
tp4533
Rp4534
ag4
(F48.118849
F0.056753127
tp4535
Rp4536
ag4
(F48.118599
F0.056614117
tp4537
Rp4538
ag4
(F48.118349
F0.056475107
tp4539
Rp4540
ag4
(F48.118099
F0.056336097
tp4541
Rp4542
ag4
(F48.117849
F0.05619713
tp4543
Rp4544
ag4
(F48.117599
F0.056058235
tp4545
Rp4546
ag4
(F48.117349
F0.05591934
tp4547
Rp4548
ag4
(F48.117099
F0.055780445
tp4549
Rp4550
ag4
(F48.116849
F0.055641549
tp4551
Rp4552
ag4
(F48.116603
F0.055505372
tp4553
Rp4554
ag4
(F48.116363
F0.055373273
tp4555
Rp4556
ag4
(F48.116123
F0.055241174
tp4557
Rp4558
ag4
(F48.115883
F0.055109075
tp4559
Rp4560
ag4
(F48.115643
F0.054976976
tp4561
Rp4562
ag4
(F48.115403
F0.054844877
tp4563
Rp4564
ag4
(F48.115162
F0.054712778
tp4565
Rp4566
ag4
(F48.114921
F0.05458068
tp4567
Rp4568
ag4
(F48.114681
F0.054448582
tp4569
Rp4570
ag4
(F48.11444
F0.054316483
tp4571
Rp4572
ag4
(F48.114199
F0.054184409
tp4573
Rp4574
ag4
(F48.113958
F0.054052366
tp4575
Rp4576
ag4
(F48.113718
F0.053920322
tp4577
Rp4578
ag4
(F48.113477
F0.053788278
tp4579
Rp4580
ag4
(F48.113236
F0.053656234
tp4581
Rp4582
ag4
(F48.113
F0.053527251
tp4583
Rp4584
ag4
(F48.112768
F0.053401651
tp4585
Rp4586
ag4
(F48.112536
F0.053276051
tp4587
Rp4588
ag4
(F48.112305
F0.05315045
tp4589
Rp4590
ag4
(F48.112073
F0.05302485
tp4591
Rp4592
ag4
(F48.111842
F0.052899249
tp4593
Rp4594
ag4
(F48.11161
F0.052773648
tp4595
Rp4596
ag4
(F48.111379
F0.052648047
tp4597
Rp4598
ag4
(F48.111147
F0.052522446
tp4599
Rp4600
ag4
(F48.110916
F0.052396845
tp4601
Rp4602
ag4
(F48.110684
F0.052271244
tp4603
Rp4604
ag4
(F48.110454
F0.052145644
tp4605
Rp4606
ag4
(F48.110223
F0.052020044
tp4607
Rp4608
ag4
(F48.109992
F0.051894443
tp4609
Rp4610
ag4
(F48.109761
F0.051768843
tp4611
Rp4612
ag4
(F48.109537
F0.051646423
tp4613
Rp4614
ag4
(F48.109319
F0.051526606
tp4615
Rp4616
ag4
(F48.1091
F0.051406789
tp4617
Rp4618
ag4
(F48.108882
F0.051286972
tp4619
Rp4620
ag4
(F48.108663
F0.051167154
tp4621
Rp4622
ag4
(F48.108445
F0.051047506
tp4623
Rp4624
ag4
(F48.108228
F0.050927982
tp4625
Rp4626
ag4
(F48.108011
F0.050808458
tp4627
Rp4628
ag4
(F48.107794
F0.050688934
tp4629
Rp4630
ag4
(F48.107577
F0.050569411
tp4631
Rp4632
ag4
(F48.10736
F0.050449887
tp4633
Rp4634
ag4
(F48.107142
F0.050330363
tp4635
Rp4636
ag4
(F48.106924
F0.050210839
tp4637
Rp4638
ag4
(F48.106707
F0.050091315
tp4639
Rp4640
ag4
(F48.106489
F0.049971792
tp4641
Rp4642
ag4
(F48.106273
F0.04985545
tp4643
Rp4644
ag4
(F48.106058
F0.049741017
tp4645
Rp4646
ag4
(F48.105844
F0.049626584
tp4647
Rp4648
ag4
(F48.105629
F0.049512152
tp4649
Rp4650
ag4
(F48.105414
F0.049397719
tp4651
Rp4652
ag4
(F48.1052
F0.049283892
tp4653
Rp4654
ag4
(F48.104986
F0.049170391
tp4655
Rp4656
ag4
(F48.104772
F0.049056889
tp4657
Rp4658
ag4
(F48.104558
F0.048943388
tp4659
Rp4660
ag4
(F48.104344
F0.048829887
tp4661
Rp4662
ag4
(F48.10413
F0.048716386
tp4663
Rp4664
ag4
(F48.103916
F0.048602885
tp4665
Rp4666
ag4
(F48.103702
F0.048489384
tp4667
Rp4668
ag4
(F48.103489
F0.048375882
tp4669
Rp4670
ag4
(F48.103275
F0.048262381
tp4671
Rp4672
ag4
(F48.103067
F0.048151572
tp4673
Rp4674
ag4
(F48.102862
F0.048041917
tp4675
Rp4676
ag4
(F48.102658
F0.047932262
tp4677
Rp4678
ag4
(F48.102453
F0.047822606
tp4679
Rp4680
ag4
(F48.102248
F0.047712951
tp4681
Rp4682
ag4
(F48.102047
F0.047604554
tp4683
Rp4684
ag4
(F48.101847
F0.047496634
tp4685
Rp4686
ag4
(F48.101647
F0.047388715
tp4687
Rp4688
ag4
(F48.101446
F0.047280795
tp4689
Rp4690
ag4
(F48.101246
F0.047172876
tp4691
Rp4692
ag4
(F48.101046
F0.047064956
tp4693
Rp4694
ag4
(F48.100845
F0.046957036
tp4695
Rp4696
ag4
(F48.100644
F0.046849117
tp4697
Rp4698
ag4
(F48.100443
F0.046741197
tp4699
Rp4700
ag4
(F48.100242
F0.046633278
tp4701
Rp4702
ag4
(F48.100042
F0.046527371
tp4703
Rp4704
ag4
(F48.099843
F0.046422049
tp4705
Rp4706
ag4
(F48.099644
F0.046316727
tp4707
Rp4708
ag4
(F48.099444
F0.046211405
tp4709
Rp4710
ag4
(F48.099245
F0.046106083
tp4711
Rp4712
ag4
(F48.099047
F0.046002995
tp4713
Rp4714
ag4
(F48.09885
F0.045900465
tp4715
Rp4716
ag4
(F48.098653
F0.045797935
tp4717
Rp4718
ag4
(F48.098456
F0.045695406
tp4719
Rp4720
ag4
(F48.098259
F0.045592876
tp4721
Rp4722
ag4
(F48.098062
F0.045490346
tp4723
Rp4724
ag4
(F48.097865
F0.045387817
tp4725
Rp4726
ag4
(F48.097668
F0.045285287
tp4727
Rp4728
ag4
(F48.097471
F0.045182757
tp4729
Rp4730
ag4
(F48.097274
F0.045080227
tp4731
Rp4732
ag4
(F48.097079
F0.044978654
tp4733
Rp4734
ag4
(F48.096884
F0.044877249
tp4735
Rp4736
ag4
(F48.096689
F0.044775844
tp4737
Rp4738
ag4
(F48.096494
F0.044674439
tp4739
Rp4740
ag4
(F48.0963
F0.044573034
tp4741
Rp4742
ag4
(F48.096114
F0.044475078
tp4743
Rp4744
ag4
(F48.09593
F0.044377614
tp4745
Rp4746
ag4
(F48.095746
F0.044280151
tp4747
Rp4748
ag4
(F48.095562
F0.044182688
tp4749
Rp4750
ag4
(F48.095378
F0.044085224
tp4751
Rp4752
ag4
(F48.095193
F0.043987761
tp4753
Rp4754
ag4
(F48.095009
F0.043890298
tp4755
Rp4756
ag4
(F48.094824
F0.043792834
tp4757
Rp4758
ag4
(F48.094639
F0.043695371
tp4759
Rp4760
ag4
(F48.094454
F0.043597908
tp4761
Rp4762
ag4
(F48.09427
F0.043500444
tp4763
Rp4764
ag4
(F48.094085
F0.043402981
tp4765
Rp4766
ag4
(F48.0939
F0.043305518
tp4767
Rp4768
ag4
(F48.093715
F0.043208054
tp4769
Rp4770
ag4
(F48.09353
F0.043110591
tp4771
Rp4772
ag4
(F48.093353
F0.043017325
tp4773
Rp4774
ag4
(F48.093176
F0.042924281
tp4775
Rp4776
ag4
(F48.092999
F0.042831236
tp4777
Rp4778
ag4
(F48.092821
F0.042738191
tp4779
Rp4780
ag4
(F48.092644
F0.042645147
tp4781
Rp4782
ag4
(F48.092467
F0.042552528
tp4783
Rp4784
ag4
(F48.09229
F0.04245992
tp4785
Rp4786
ag4
(F48.092113
F0.042367312
tp4787
Rp4788
ag4
(F48.091936
F0.042274703
tp4789
Rp4790
ag4
(F48.091759
F0.042182095
tp4791
Rp4792
ag4
(F48.091582
F0.042089487
tp4793
Rp4794
ag4
(F48.091406
F0.041996879
tp4795
Rp4796
ag4
(F48.09123
F0.041904271
tp4797
Rp4798
ag4
(F48.091053
F0.041811663
tp4799
Rp4800
ag4
(F48.090877
F0.041719117
tp4801
Rp4802
ag4
(F48.090701
F0.041629011
tp4803
Rp4804
ag4
(F48.090526
F0.041538905
tp4805
Rp4806
ag4
(F48.09035
F0.041448798
tp4807
Rp4808
ag4
(F48.090175
F0.041358692
tp4809
Rp4810
ag4
(F48.089999
F0.041268691
tp4811
Rp4812
ag4
(F48.089825
F0.041180681
tp4813
Rp4814
ag4
(F48.089651
F0.041092671
tp4815
Rp4816
ag4
(F48.089477
F0.041004661
tp4817
Rp4818
ag4
(F48.089303
F0.040916652
tp4819
Rp4820
ag4
(F48.089129
F0.040828642
tp4821
Rp4822
ag4
(F48.088956
F0.040740632
tp4823
Rp4824
ag4
(F48.088782
F0.040652623
tp4825
Rp4826
ag4
(F48.088609
F0.040564613
tp4827
Rp4828
ag4
(F48.088436
F0.040476603
tp4829
Rp4830
ag4
(F48.088262
F0.040388648
tp4831
Rp4832
ag4
(F48.08809
F0.040301185
tp4833
Rp4834
ag4
(F48.087917
F0.040213722
tp4835
Rp4836
ag4
(F48.087745
F0.040126259
tp4837
Rp4838
ag4
(F48.087572
F0.040038796
tp4839
Rp4840
ag4
(F48.087401
F0.039951815
tp4841
Rp4842
ag4
(F48.087239
F0.039868211
tp4843
Rp4844
ag4
(F48.087076
F0.039784608
tp4845
Rp4846
ag4
(F48.086913
F0.039701004
tp4847
Rp4848
ag4
(F48.086751
F0.0396174
tp4849
Rp4850
ag4
(F48.086588
F0.039533797
tp4851
Rp4852
ag4
(F48.086427
F0.039450194
tp4853
Rp4854
ag4
(F48.086265
F0.039366591
tp4855
Rp4856
ag4
(F48.086103
F0.039282988
tp4857
Rp4858
ag4
(F48.085941
F0.039199385
tp4859
Rp4860
ag4
(F48.085779
F0.039115782
tp4861
Rp4862
ag4
(F48.085618
F0.039032179
tp4863
Rp4864
ag4
(F48.085456
F0.038948576
tp4865
Rp4866
ag4
(F48.085294
F0.038864973
tp4867
Rp4868
ag4
(F48.085132
F0.03878137
tp4869
Rp4870
ag4
(F48.084971
F0.038698307
tp4871
Rp4872
ag4
(F48.084811
F0.038617406
tp4873
Rp4874
ag4
(F48.08465
F0.038536506
tp4875
Rp4876
ag4
(F48.08449
F0.038455605
tp4877
Rp4878
ag4
(F48.08433
F0.038374705
tp4879
Rp4880
ag4
(F48.08417
F0.038294135
tp4881
Rp4882
ag4
(F48.08401
F0.038214702
tp4883
Rp4884
ag4
(F48.083851
F0.03813527
tp4885
Rp4886
ag4
(F48.083691
F0.038055838
tp4887
Rp4888
ag4
(F48.083532
F0.037976406
tp4889
Rp4890
ag4
(F48.083372
F0.037896974
tp4891
Rp4892
ag4
(F48.083214
F0.037817541
tp4893
Rp4894
ag4
(F48.083055
F0.037738109
tp4895
Rp4896
ag4
(F48.082896
F0.037658677
tp4897
Rp4898
ag4
(F48.082738
F0.037579245
tp4899
Rp4900
ag4
(F48.082579
F0.037499938
tp4901
Rp4902
ag4
(F48.08242
F0.037420963
tp4903
Rp4904
ag4
(F48.082261
F0.037341988
tp4905
Rp4906
ag4
(F48.082103
F0.037263012
tp4907
Rp4908
ag4
(F48.081944
F0.037184037
tp4909
Rp4910
ag4
(F48.081789
F0.037106107
tp4911
Rp4912
ag4
(F48.081641
F0.037030617
tp4913
Rp4914
ag4
(F48.081494
F0.036955128
tp4915
Rp4916
ag4
(F48.081347
F0.036879638
tp4917
Rp4918
ag4
(F48.0812
F0.036804148
tp4919
Rp4920
ag4
(F48.081052
F0.036728658
tp4921
Rp4922
ag4
(F48.080904
F0.036653168
tp4923
Rp4924
ag4
(F48.080756
F0.036577677
tp4925
Rp4926
ag4
(F48.080608
F0.036502187
tp4927
Rp4928
ag4
(F48.08046
F0.036426696
tp4929
Rp4930
ag4
(F48.080312
F0.036351206
tp4931
Rp4932
ag4
(F48.080164
F0.036275716
tp4933
Rp4934
ag4
(F48.080016
F0.036200227
tp4935
Rp4936
ag4
(F48.079868
F0.036124737
tp4937
Rp4938
ag4
(F48.07972
F0.036049247
tp4939
Rp4940
ag4
(F48.079573
F0.035974507
tp4941
Rp4942
ag4
(F48.079427
F0.035901016
tp4943
Rp4944
ag4
(F48.07928
F0.035827524
tp4945
Rp4946
ag4
(F48.079134
F0.035754033
tp4947
Rp4948
ag4
(F48.078987
F0.035680542
tp4949
Rp4950
ag4
(F48.078841
F0.035607766
tp4951
Rp4952
ag4
(F48.078695
F0.035536061
tp4953
Rp4954
ag4
(F48.07855
F0.035464356
tp4955
Rp4956
ag4
(F48.078404
F0.035392652
tp4957
Rp4958
ag4
(F48.078258
F0.035320947
tp4959
Rp4960
ag4
(F48.078113
F0.035249243
tp4961
Rp4962
ag4
(F48.077967
F0.035177537
tp4963
Rp4964
ag4
(F48.077821
F0.035105832
tp4965
Rp4966
ag4
(F48.077676
F0.035034127
tp4967
Rp4968
ag4
(F48.07753
F0.034962421
tp4969
Rp4970
ag4
(F48.077384
F0.034890716
tp4971
Rp4972
ag4
(F48.077239
F0.034819012
tp4973
Rp4974
ag4
(F48.077093
F0.034747307
tp4975
Rp4976
ag4
(F48.076947
F0.034675603
tp4977
Rp4978
ag4
(F48.076801
F0.034603898
tp4979
Rp4980
ag4
(F48.076659
F0.034533707
tp4981
Rp4982
ag4
(F48.076519
F0.034465189
tp4983
Rp4984
ag4
(F48.07638
F0.03439667
tp4985
Rp4986
ag4
(F48.07624
F0.034328152
tp4987
Rp4988
ag4
(F48.076101
F0.034259634
tp4989
Rp4990
ag4
(F48.075961
F0.034191328
tp4991
Rp4992
ag4
(F48.075823
F0.034123236
tp4993
Rp4994
ag4
(F48.075684
F0.034055144
tp4995
Rp4996
ag4
(F48.075545
F0.033987051
tp4997
Rp4998
ag4
(F48.075406
F0.033918959
tp4999
Rp5000
ag4
(F48.075267
F0.033850867
tp5001
Rp5002
ag4
(F48.075129
F0.033782774
tp5003
Rp5004
ag4
(F48.07499
F0.033714682
tp5005
Rp5006
ag4
(F48.074851
F0.03364659
tp5007
Rp5008
ag4
(F48.074712
F0.033578497
tp5009
Rp5010
ag4
(F48.074574
F0.033510736
tp5011
Rp5012
ag4
(F48.074436
F0.033443245
tp5013
Rp5014
ag4
(F48.074298
F0.033375754
tp5015
Rp5016
ag4
(F48.07416
F0.033308263
tp5017
Rp5018
ag4
(F48.074022
F0.033240772
tp5019
Rp5020
ag4
(F48.073887
F0.0331749
tp5021
Rp5022
ag4
(F48.073755
F0.033110224
tp5023
Rp5024
ag4
(F48.073624
F0.033045549
tp5025
Rp5026
ag4
(F48.073492
F0.032980873
tp5027
Rp5028
ag4
(F48.07336
F0.032916197
tp5029
Rp5030
ag4
(F48.073227
F0.032851522
tp5031
Rp5032
ag4
(F48.073095
F0.032786845
tp5033
Rp5034
ag4
(F48.072962
F0.032722169
tp5035
Rp5036
ag4
(F48.072829
F0.032657493
tp5037
Rp5038
ag4
(F48.072697
F0.032592816
tp5039
Rp5040
ag4
(F48.072564
F0.032528141
tp5041
Rp5042
ag4
(F48.072432
F0.032463465
tp5043
Rp5044
ag4
(F48.072299
F0.03239879
tp5045
Rp5046
ag4
(F48.072166
F0.032334114
tp5047
Rp5048
ag4
(F48.072034
F0.032269438
tp5049
Rp5050
ag4
(F48.071902
F0.032205627
tp5051
Rp5052
ag4
(F48.071771
F0.032142282
tp5053
Rp5054
ag4
(F48.07164
F0.032078936
tp5055
Rp5056
ag4
(F48.071509
F0.03201559
tp5057
Rp5058
ag4
(F48.071377
F0.031952245
tp5059
Rp5060
ag4
(F48.071247
F0.031890192
tp5061
Rp5062
ag4
(F48.071117
F0.031828763
tp5063
Rp5064
ag4
(F48.070986
F0.031767333
tp5065
Rp5066
ag4
(F48.070856
F0.031705904
tp5067
Rp5068
ag4
(F48.070725
F0.031644475
tp5069
Rp5070
ag4
(F48.070595
F0.031583045
tp5071
Rp5072
ag4
(F48.070465
F0.031521614
tp5073
Rp5074
ag4
(F48.070334
F0.031460184
tp5075
Rp5076
ag4
(F48.070204
F0.031398754
tp5077
Rp5078
ag4
(F48.070074
F0.031337324
tp5079
Rp5080
ag4
(F48.069943
F0.031275893
tp5081
Rp5082
ag4
(F48.069813
F0.031214463
tp5083
Rp5084
ag4
(F48.069683
F0.031153033
tp5085
Rp5086
ag4
(F48.069552
F0.031091603
tp5087
Rp5088
ag4
(F48.069422
F0.031030173
tp5089
Rp5090
ag4
(F48.069296
F0.03097011
tp5091
Rp5092
ag4
(F48.069172
F0.030910504
tp5093
Rp5094
ag4
(F48.069048
F0.030850898
tp5095
Rp5096
ag4
(F48.068924
F0.030791292
tp5097
Rp5098
ag4
(F48.068799
F0.030731686
tp5099
Rp5100
ag4
(F48.068679
F0.030673087
tp5101
Rp5102
ag4
(F48.068559
F0.03061478
tp5103
Rp5104
ag4
(F48.068439
F0.030556473
tp5105
Rp5106
ag4
(F48.06832
F0.030498166
tp5107
Rp5108
ag4
(F48.0682
F0.030439859
tp5109
Rp5110
ag4
(F48.06808
F0.030381552
tp5111
Rp5112
ag4
(F48.06796
F0.030323245
tp5113
Rp5114
ag4
(F48.067839
F0.030264938
tp5115
Rp5116
ag4
(F48.067719
F0.030206631
tp5117
Rp5118
ag4
(F48.067598
F0.030148324
tp5119
Rp5120
ag4
(F48.067479
F0.030090017
tp5121
Rp5122
ag4
(F48.067359
F0.03003171
tp5123
Rp5124
ag4
(F48.067239
F0.029973403
tp5125
Rp5126
ag4
(F48.06712
F0.029915096
tp5127
Rp5128
ag4
(F48.067
F0.029856789
tp5129
Rp5130
ag4
(F48.066881
F0.029800196
tp5131
Rp5132
ag4
(F48.066762
F0.029743905
tp5133
Rp5134
ag4
(F48.066644
F0.029687614
tp5135
Rp5136
ag4
(F48.066525
F0.029631323
tp5137
Rp5138
ag4
(F48.066406
F0.029575032
tp5139
Rp5140
ag4
(F48.066288
F0.029519519
tp5141
Rp5142
ag4
(F48.06617
F0.029464117
tp5143
Rp5144
ag4
(F48.066052
F0.029408715
tp5145
Rp5146
ag4
(F48.065933
F0.029353313
tp5147
Rp5148
ag4
(F48.065815
F0.029297911
tp5149
Rp5150
ag4
(F48.065697
F0.029242509
tp5151
Rp5152
ag4
(F48.065579
F0.029187107
tp5153
Rp5154
ag4
(F48.065461
F0.029131705
tp5155
Rp5156
ag4
(F48.065343
F0.029076303
tp5157
Rp5158
ag4
(F48.065225
F0.029020901
tp5159
Rp5160
ag4
(F48.065107
F0.028965499
tp5161
Rp5162
ag4
(F48.064989
F0.028910097
tp5163
Rp5164
ag4
(F48.064871
F0.028854694
tp5165
Rp5166
ag4
(F48.064753
F0.028799292
tp5167
Rp5168
ag4
(F48.064635
F0.02874389
tp5169
Rp5170
ag4
(F48.064521
F0.028690484
tp5171
Rp5172
ag4
(F48.064407
F0.028637183
tp5173
Rp5174
ag4
(F48.064294
F0.028583883
tp5175
Rp5176
ag4
(F48.06418
F0.028530583
tp5177
Rp5178
ag4
(F48.064067
F0.028477282
tp5179
Rp5180
ag4
(F48.063955
F0.028424686
tp5181
Rp5182
ag4
(F48.063843
F0.028372108
tp5183
Rp5184
ag4
(F48.063731
F0.02831953
tp5185
Rp5186
ag4
(F48.063619
F0.028266952
tp5187
Rp5188
ag4
(F48.063507
F0.028214375
tp5189
Rp5190
ag4
(F48.063395
F0.028161797
tp5191
Rp5192
ag4
(F48.063283
F0.02810922
tp5193
Rp5194
ag4
(F48.063171
F0.028056642
tp5195
Rp5196
ag4
(F48.063059
F0.028004065
tp5197
Rp5198
ag4
(F48.062947
F0.027951487
tp5199
Rp5200
ag4
(F48.062835
F0.027898909
tp5201
Rp5202
ag4
(F48.062723
F0.027846332
tp5203
Rp5204
ag4
(F48.062611
F0.027793754
tp5205
Rp5206
ag4
(F48.0625
F0.027741177
tp5207
Rp5208
ag4
(F48.062388
F0.027688696
tp5209
Rp5210
ag4
(F48.06228
F0.02763805
tp5211
Rp5212
ag4
(F48.062172
F0.027587404
tp5213
Rp5214
ag4
(F48.062063
F0.027536758
tp5215
Rp5216
ag4
(F48.061955
F0.027486112
tp5217
Rp5218
ag4
(F48.061847
F0.02743552
tp5219
Rp5220
ag4
(F48.061741
F0.027385596
tp5221
Rp5222
ag4
(F48.061634
F0.027335672
tp5223
Rp5224
ag4
(F48.061528
F0.027285748
tp5225
Rp5226
ag4
(F48.061421
F0.027235824
tp5227
Rp5228
ag4
(F48.061314
F0.0271859
tp5229
Rp5230
ag4
(F48.061208
F0.027135975
tp5231
Rp5232
ag4
(F48.061101
F0.027086051
tp5233
Rp5234
ag4
(F48.060995
F0.027036127
tp5235
Rp5236
ag4
(F48.060888
F0.026986203
tp5237
Rp5238
ag4
(F48.060782
F0.026936279
tp5239
Rp5240
ag4
(F48.060675
F0.026886355
tp5241
Rp5242
ag4
(F48.060568
F0.026836431
tp5243
Rp5244
ag4
(F48.060462
F0.026786507
tp5245
Rp5246
ag4
(F48.060355
F0.026736582
tp5247
Rp5248
ag4
(F48.060249
F0.026686907
tp5249
Rp5250
ag4
(F48.060144
F0.026638639
tp5251
Rp5252
ag4
(F48.060039
F0.02659037
tp5253
Rp5254
ag4
(F48.059934
F0.026542102
tp5255
Rp5256
ag4
(F48.059829
F0.026493834
tp5257
Rp5258
ag4
(F48.059724
F0.026445723
tp5259
Rp5260
ag4
(F48.059619
F0.026398354
tp5261
Rp5262
ag4
(F48.059515
F0.026350985
tp5263
Rp5264
ag4
(F48.059411
F0.026303616
tp5265
Rp5266
ag4
(F48.059307
F0.026256246
tp5267
Rp5268
ag4
(F48.059202
F0.026208877
tp5269
Rp5270
ag4
(F48.059097
F0.026161508
tp5271
Rp5272
ag4
(F48.058992
F0.02611414
tp5273
Rp5274
ag4
(F48.058887
F0.026066771
tp5275
Rp5276
ag4
(F48.058782
F0.026019402
tp5277
Rp5278
ag4
(F48.058677
F0.025972033
tp5279
Rp5280
ag4
(F48.058573
F0.025924664
tp5281
Rp5282
ag4
(F48.058469
F0.025877295
tp5283
Rp5284
ag4
(F48.058364
F0.025829926
tp5285
Rp5286
ag4
(F48.05826
F0.025782558
tp5287
Rp5288
ag4
(F48.058156
F0.025735486
tp5289
Rp5290
ag4
(F48.058054
F0.025689305
tp5291
Rp5292
ag4
(F48.057952
F0.025643124
tp5293
Rp5294
ag4
(F48.05785
F0.025596943
tp5295
Rp5296
ag4
(F48.057748
F0.025550762
tp5297
Rp5298
ag4
(F48.057647
F0.025504908
tp5299
Rp5300
ag4
(F48.057547
F0.025459916
tp5301
Rp5302
ag4
(F48.057448
F0.025414924
tp5303
Rp5304
ag4
(F48.057348
F0.025369932
tp5305
Rp5306
ag4
(F48.057248
F0.02532494
tp5307
Rp5308
ag4
(F48.057149
F0.025279948
tp5309
Rp5310
ag4
(F48.05705
F0.025234955
tp5311
Rp5312
ag4
(F48.056951
F0.025189963
tp5313
Rp5314
ag4
(F48.056852
F0.025144971
tp5315
Rp5316
ag4
(F48.056753
F0.025099979
tp5317
Rp5318
ag4
(F48.056654
F0.025054987
tp5319
Rp5320
ag4
(F48.056554
F0.025009994
tp5321
Rp5322
ag4
(F48.056455
F0.024965002
tp5323
Rp5324
ag4
(F48.056355
F0.024920009
tp5325
Rp5326
ag4
(F48.056255
F0.024875017
tp5327
Rp5328
ag4
(F48.056156
F0.024830257
tp5329
Rp5330
ag4
(F48.056059
F0.024785928
tp5331
Rp5332
ag4
(F48.055962
F0.0247416
tp5333
Rp5334
ag4
(F48.055864
F0.024697272
tp5335
Rp5336
ag4
(F48.055767
F0.024652943
tp5337
Rp5338
ag4
(F48.055671
F0.02460923
tp5339
Rp5340
ag4
(F48.055576
F0.024566543
tp5341
Rp5342
ag4
(F48.055482
F0.024523857
tp5343
Rp5344
ag4
(F48.055388
F0.02448117
tp5345
Rp5346
ag4
(F48.055293
F0.024438483
tp5347
Rp5348
ag4
(F48.055199
F0.024395796
tp5349
Rp5350
ag4
(F48.055106
F0.024353109
tp5351
Rp5352
ag4
(F48.055012
F0.024310422
tp5353
Rp5354
ag4
(F48.054919
F0.024267735
tp5355
Rp5356
ag4
(F48.054825
F0.024225048
tp5357
Rp5358
ag4
(F48.054732
F0.024182361
tp5359
Rp5360
ag4
(F48.054638
F0.024139673
tp5361
Rp5362
ag4
(F48.054545
F0.024096986
tp5363
Rp5364
ag4
(F48.054451
F0.024054299
tp5365
Rp5366
ag4
(F48.054357
F0.024011611
tp5367
Rp5368
ag4
(F48.054264
F0.02396893
tp5369
Rp5370
ag4
(F48.054169
F0.023926256
tp5371
Rp5372
ag4
(F48.054075
F0.023883582
tp5373
Rp5374
ag4
(F48.053981
F0.023840908
tp5375
Rp5376
ag4
(F48.053886
F0.023798235
tp5377
Rp5378
ag4
(F48.053793
F0.023756584
tp5379
Rp5380
ag4
(F48.053701
F0.023716066
tp5381
Rp5382
ag4
(F48.053609
F0.023675547
tp5383
Rp5384
ag4
(F48.053517
F0.023635028
tp5385
Rp5386
ag4
(F48.053425
F0.023594509
tp5387
Rp5388
ag4
(F48.053333
F0.02355399
tp5389
Rp5390
ag4
(F48.05324
F0.023513471
tp5391
Rp5392
ag4
(F48.053147
F0.023472952
tp5393
Rp5394
ag4
(F48.053054
F0.023432433
tp5395
Rp5396
ag4
(F48.052962
F0.023391914
tp5397
Rp5398
ag4
(F48.052869
F0.023351395
tp5399
Rp5400
ag4
(F48.052777
F0.023310876
tp5401
Rp5402
ag4
(F48.052685
F0.023270357
tp5403
Rp5404
ag4
(F48.052593
F0.023229838
tp5405
Rp5406
ag4
(F48.052501
F0.023189319
tp5407
Rp5408
ag4
(F48.052409
F0.023148801
tp5409
Rp5410
ag4
(F48.052316
F0.023108282
tp5411
Rp5412
ag4
(F48.052223
F0.023067763
tp5413
Rp5414
ag4
(F48.05213
F0.023027244
tp5415
Rp5416
ag4
(F48.052038
F0.022986725
tp5417
Rp5418
ag4
(F48.051948
F0.022946993
tp5419
Rp5420
ag4
(F48.051862
F0.022907842
tp5421
Rp5422
ag4
(F48.051775
F0.022868691
tp5423
Rp5424
ag4
(F48.051688
F0.02282954
tp5425
Rp5426
ag4
(F48.051602
F0.022790388
tp5427
Rp5428
ag4
(F48.051517
F0.022751668
tp5429
Rp5430
ag4
(F48.051433
F0.022713234
tp5431
Rp5432
ag4
(F48.05135
F0.0226748
tp5433
Rp5434
ag4
(F48.051266
F0.022636366
tp5435
Rp5436
ag4
(F48.051183
F0.022597933
tp5437
Rp5438
ag4
(F48.051099
F0.022559499
tp5439
Rp5440
ag4
(F48.051015
F0.022521065
tp5441
Rp5442
ag4
(F48.050932
F0.022482631
tp5443
Rp5444
ag4
(F48.050848
F0.022444198
tp5445
Rp5446
ag4
(F48.050765
F0.022405764
tp5447
Rp5448
ag4
(F48.050681
F0.02236733
tp5449
Rp5450
ag4
(F48.050598
F0.022328896
tp5451
Rp5452
ag4
(F48.050514
F0.022290463
tp5453
Rp5454
ag4
(F48.05043
F0.022252029
tp5455
Rp5456
ag4
(F48.050347
F0.022213595
tp5457
Rp5458
ag4
(F48.050263
F0.02217547
tp5459
Rp5460
ag4
(F48.050178
F0.022137493
tp5461
Rp5462
ag4
(F48.050094
F0.022099517
tp5463
Rp5464
ag4
(F48.05001
F0.02206154
tp5465
Rp5466
ag4
(F48.049925
F0.022023563
tp5467
Rp5468
ag4
(F48.04984
F0.021986633
tp5469
Rp5470
ag4
(F48.049754
F0.021950152
tp5471
Rp5472
ag4
(F48.049668
F0.02191367
tp5473
Rp5474
ag4
(F48.049582
F0.021877188
tp5475
Rp5476
ag4
(F48.049496
F0.021840707
tp5477
Rp5478
ag4
(F48.049411
F0.021804225
tp5479
Rp5480
ag4
(F48.049325
F0.021767743
tp5481
Rp5482
ag4
(F48.049239
F0.021731262
tp5483
Rp5484
ag4
(F48.049153
F0.02169478
tp5485
Rp5486
ag4
(F48.049067
F0.021658299
tp5487
Rp5488
ag4
(F48.048981
F0.021621817
tp5489
Rp5490
ag4
(F48.048895
F0.021585335
tp5491
Rp5492
ag4
(F48.048809
F0.021548854
tp5493
Rp5494
ag4
(F48.048724
F0.021512372
tp5495
Rp5496
ag4
(F48.048638
F0.02147589
tp5497
Rp5498
ag4
(F48.048552
F0.021439409
tp5499
Rp5500
ag4
(F48.048466
F0.021402927
tp5501
Rp5502
ag4
(F48.04838
F0.021366445
tp5503
Rp5504
ag4
(F48.048294
F0.021329964
tp5505
Rp5506
ag4
(F48.048208
F0.021293482
tp5507
Rp5508
ag4
(F48.048127
F0.021258119
tp5509
Rp5510
ag4
(F48.048048
F0.021223035
tp5511
Rp5512
ag4
(F48.047968
F0.021187951
tp5513
Rp5514
ag4
(F48.047888
F0.021152867
tp5515
Rp5516
ag4
(F48.047808
F0.021117783
tp5517
Rp5518
ag4
(F48.04773
F0.0210831
tp5519
Rp5520
ag4
(F48.047653
F0.021048502
tp5521
Rp5522
ag4
(F48.047576
F0.021013905
tp5523
Rp5524
ag4
(F48.047498
F0.020979307
tp5525
Rp5526
ag4
(F48.047421
F0.020944709
tp5527
Rp5528
ag4
(F48.047343
F0.020910111
tp5529
Rp5530
ag4
(F48.047266
F0.020875513
tp5531
Rp5532
ag4
(F48.047188
F0.020840915
tp5533
Rp5534
ag4
(F48.047111
F0.020806317
tp5535
Rp5536
ag4
(F48.047033
F0.020771719
tp5537
Rp5538
ag4
(F48.046956
F0.020737122
tp5539
Rp5540
ag4
(F48.046879
F0.020702524
tp5541
Rp5542
ag4
(F48.046801
F0.020667926
tp5543
Rp5544
ag4
(F48.046724
F0.020633329
tp5545
Rp5546
ag4
(F48.046646
F0.020598731
tp5547
Rp5548
ag4
(F48.046569
F0.020564413
tp5549
Rp5550
ag4
(F48.046491
F0.020530125
tp5551
Rp5552
ag4
(F48.046414
F0.020495838
tp5553
Rp5554
ag4
(F48.046336
F0.020461551
tp5555
Rp5556
ag4
(F48.046259
F0.020427264
tp5557
Rp5558
ag4
(F48.046183
F0.020394321
tp5559
Rp5560
ag4
(F48.046107
F0.020361488
tp5561
Rp5562
ag4
(F48.046031
F0.020328654
tp5563
Rp5564
ag4
(F48.045955
F0.020295821
tp5565
Rp5566
ag4
(F48.045879
F0.020262987
tp5567
Rp5568
ag4
(F48.045803
F0.020230154
tp5569
Rp5570
ag4
(F48.045726
F0.02019732
tp5571
Rp5572
ag4
(F48.045649
F0.020164487
tp5573
Rp5574
ag4
(F48.045573
F0.020131653
tp5575
Rp5576
ag4
(F48.045496
F0.02009882
tp5577
Rp5578
ag4
(F48.04542
F0.020065986
tp5579
Rp5580
ag4
(F48.045344
F0.020033153
tp5581
Rp5582
ag4
(F48.045268
F0.020000319
tp5583
Rp5584
ag4
(F48.045192
F0.019967486
tp5585
Rp5586
ag4
(F48.045116
F0.019934652
tp5587
Rp5588
ag4
(F48.04504
F0.019901819
tp5589
Rp5590
ag4
(F48.044963
F0.019868985
tp5591
Rp5592
ag4
(F48.044886
F0.019836152
tp5593
Rp5594
ag4
(F48.04481
F0.019803318
tp5595
Rp5596
ag4
(F48.044733
F0.019770508
tp5597
Rp5598
ag4
(F48.044658
F0.019738596
tp5599
Rp5600
ag4
(F48.044583
F0.019706684
tp5601
Rp5602
ag4
(F48.044508
F0.019674772
tp5603
Rp5604
ag4
(F48.044433
F0.01964286
tp5605
Rp5606
ag4
(F48.044357
F0.019610987
tp5607
Rp5608
ag4
(F48.044282
F0.019579866
tp5609
Rp5610
ag4
(F48.044207
F0.019548745
tp5611
Rp5612
ag4
(F48.044132
F0.019517624
tp5613
Rp5614
ag4
(F48.044057
F0.019486503
tp5615
Rp5616
ag4
(F48.043982
F0.019455382
tp5617
Rp5618
ag4
(F48.043906
F0.019424262
tp5619
Rp5620
ag4
(F48.043831
F0.019393141
tp5621
Rp5622
ag4
(F48.043756
F0.019362021
tp5623
Rp5624
ag4
(F48.043681
F0.0193309
tp5625
Rp5626
ag4
(F48.043606
F0.019299779
tp5627
Rp5628
ag4
(F48.043531
F0.019268659
tp5629
Rp5630
ag4
(F48.043456
F0.019237538
tp5631
Rp5632
ag4
(F48.04338
F0.019206417
tp5633
Rp5634
ag4
(F48.043305
F0.019175296
tp5635
Rp5636
ag4
(F48.04323
F0.019144175
tp5637
Rp5638
ag4
(F48.043155
F0.019113054
tp5639
Rp5640
ag4
(F48.04308
F0.019081934
tp5641
Rp5642
ag4
(F48.043005
F0.019050813
tp5643
Rp5644
ag4
(F48.04293
F0.019019692
tp5645
Rp5646
ag4
(F48.042855
F0.018988768
tp5647
Rp5648
ag4
(F48.042784
F0.018958956
tp5649
Rp5650
ag4
(F48.042712
F0.018929143
tp5651
Rp5652
ag4
(F48.042641
F0.018899331
tp5653
Rp5654
ag4
(F48.04257
F0.018869518
tp5655
Rp5656
ag4
(F48.042499
F0.018839755
tp5657
Rp5658
ag4
(F48.042428
F0.018810227
tp5659
Rp5660
ag4
(F48.042358
F0.018780698
tp5661
Rp5662
ag4
(F48.042287
F0.01875117
tp5663
Rp5664
ag4
(F48.042216
F0.018721641
tp5665
Rp5666
ag4
(F48.042146
F0.018692112
tp5667
Rp5668
ag4
(F48.042075
F0.018662583
tp5669
Rp5670
ag4
(F48.042005
F0.018633054
tp5671
Rp5672
ag4
(F48.041934
F0.018603525
tp5673
Rp5674
ag4
(F48.041864
F0.018573996
tp5675
Rp5676
ag4
(F48.041793
F0.018544467
tp5677
Rp5678
ag4
(F48.041723
F0.018514938
tp5679
Rp5680
ag4
(F48.041652
F0.018485409
tp5681
Rp5682
ag4
(F48.041582
F0.01845588
tp5683
Rp5684
ag4
(F48.041511
F0.018426351
tp5685
Rp5686
ag4
(F48.041441
F0.018396835
tp5687
Rp5688
ag4
(F48.041371
F0.018367355
tp5689
Rp5690
ag4
(F48.041301
F0.018337875
tp5691
Rp5692
ag4
(F48.041231
F0.018308396
tp5693
Rp5694
ag4
(F48.041162
F0.018278916
tp5695
Rp5696
ag4
(F48.041093
F0.018249844
tp5697
Rp5698
ag4
(F48.041026
F0.018221845
tp5699
Rp5700
ag4
(F48.040959
F0.018193846
tp5701
Rp5702
ag4
(F48.040893
F0.018165847
tp5703
Rp5704
ag4
(F48.040826
F0.018137848
tp5705
Rp5706
ag4
(F48.040759
F0.01810985
tp5707
Rp5708
ag4
(F48.040693
F0.018081851
tp5709
Rp5710
ag4
(F48.040627
F0.018053852
tp5711
Rp5712
ag4
(F48.040562
F0.018025853
tp5713
Rp5714
ag4
(F48.040496
F0.017997854
tp5715
Rp5716
ag4
(F48.04043
F0.017969856
tp5717
Rp5718
ag4
(F48.040364
F0.017941857
tp5719
Rp5720
ag4
(F48.040298
F0.017913859
tp5721
Rp5722
ag4
(F48.040232
F0.01788586
tp5723
Rp5724
ag4
(F48.040166
F0.017857862
tp5725
Rp5726
ag4
(F48.0401
F0.017829863
tp5727
Rp5728
ag4
(F48.040034
F0.017801864
tp5729
Rp5730
ag4
(F48.039968
F0.017773865
tp5731
Rp5732
ag4
(F48.039902
F0.017745867
tp5733
Rp5734
ag4
(F48.039836
F0.017717868
tp5735
Rp5736
ag4
(F48.03977
F0.017689958
tp5737
Rp5738
ag4
(F48.039704
F0.017662197
tp5739
Rp5740
ag4
(F48.039638
F0.017634435
tp5741
Rp5742
ag4
(F48.039572
F0.017606674
tp5743
Rp5744
ag4
(F48.039506
F0.017578912
tp5745
Rp5746
ag4
(F48.039441
F0.017551634
tp5747
Rp5748
ag4
(F48.039376
F0.017525082
tp5749
Rp5750
ag4
(F48.03931
F0.017498529
tp5751
Rp5752
ag4
(F48.039245
F0.017471977
tp5753
Rp5754
ag4
(F48.03918
F0.017445424
tp5755
Rp5756
ag4
(F48.039115
F0.017418872
tp5757
Rp5758
ag4
(F48.03905
F0.017392319
tp5759
Rp5760
ag4
(F48.038985
F0.017365767
tp5761
Rp5762
ag4
(F48.038919
F0.017339214
tp5763
Rp5764
ag4
(F48.038854
F0.017312662
tp5765
Rp5766
ag4
(F48.038789
F0.017286109
tp5767
Rp5768
ag4
(F48.038725
F0.017259557
tp5769
Rp5770
ag4
(F48.038661
F0.017233005
tp5771
Rp5772
ag4
(F48.038596
F0.017206453
tp5773
Rp5774
ag4
(F48.038532
F0.017179901
tp5775
Rp5776
ag4
(F48.038467
F0.017153348
tp5777
Rp5778
ag4
(F48.038402
F0.017126796
tp5779
Rp5780
ag4
(F48.038337
F0.017100243
tp5781
Rp5782
ag4
(F48.038271
F0.017073691
tp5783
Rp5784
ag4
(F48.038206
F0.017047138
tp5785
Rp5786
ag4
(F48.038141
F0.017020736
tp5787
Rp5788
ag4
(F48.038077
F0.016994484
tp5789
Rp5790
ag4
(F48.038013
F0.016968232
tp5791
Rp5792
ag4
(F48.037948
F0.01694198
tp5793
Rp5794
ag4
(F48.037884
F0.016915729
tp5795
Rp5796
ag4
(F48.037821
F0.016890043
tp5797
Rp5798
ag4
(F48.037761
F0.01686487
tp5799
Rp5800
ag4
(F48.0377
F0.016839696
tp5801
Rp5802
ag4
(F48.03764
F0.016814523
tp5803
Rp5804
ag4
(F48.037579
F0.01678935
tp5805
Rp5806
ag4
(F48.037519
F0.016764177
tp5807
Rp5808
ag4
(F48.037458
F0.016739004
tp5809
Rp5810
ag4
(F48.037397
F0.01671383
tp5811
Rp5812
ag4
(F48.037337
F0.016688657
tp5813
Rp5814
ag4
(F48.037276
F0.016663484
tp5815
Rp5816
ag4
(F48.037215
F0.016638311
tp5817
Rp5818
ag4
(F48.037154
F0.016613137
tp5819
Rp5820
ag4
(F48.037093
F0.016587964
tp5821
Rp5822
ag4
(F48.037031
F0.016562791
tp5823
Rp5824
ag4
(F48.03697
F0.016537618
tp5825
Rp5826
ag4
(F48.036909
F0.016512444
tp5827
Rp5828
ag4
(F48.036848
F0.016487271
tp5829
Rp5830
ag4
(F48.036788
F0.016462098
tp5831
Rp5832
ag4
(F48.036727
F0.016436925
tp5833
Rp5834
ag4
(F48.036667
F0.016411752
tp5835
Rp5836
ag4
(F48.036606
F0.016386736
tp5837
Rp5838
ag4
(F48.036546
F0.016361816
tp5839
Rp5840
ag4
(F48.036485
F0.016336895
tp5841
Rp5842
ag4
(F48.036424
F0.016311975
tp5843
Rp5844
ag4
(F48.036364
F0.016287054
tp5845
Rp5846
ag4
(F48.036304
F0.016262826
tp5847
Rp5848
ag4
(F48.036244
F0.01623897
tp5849
Rp5850
ag4
(F48.036184
F0.016215113
tp5851
Rp5852
ag4
(F48.036124
F0.016191257
tp5853
Rp5854
ag4
(F48.036065
F0.016167401
tp5855
Rp5856
ag4
(F48.036005
F0.016143545
tp5857
Rp5858
ag4
(F48.035945
F0.016119689
tp5859
Rp5860
ag4
(F48.035885
F0.016095833
tp5861
Rp5862
ag4
(F48.035825
F0.016071977
tp5863
Rp5864
ag4
(F48.035765
F0.016048121
tp5865
Rp5866
ag4
(F48.035706
F0.016024265
tp5867
Rp5868
ag4
(F48.035646
F0.016000409
tp5869
Rp5870
ag4
(F48.035586
F0.015976553
tp5871
Rp5872
ag4
(F48.035526
F0.015952697
tp5873
Rp5874
ag4
(F48.035466
F0.01592884
tp5875
Rp5876
ag4
(F48.035407
F0.015904984
tp5877
Rp5878
ag4
(F48.035347
F0.015881128
tp5879
Rp5880
ag4
(F48.035287
F0.015857271
tp5881
Rp5882
ag4
(F48.035227
F0.015833415
tp5883
Rp5884
ag4
(F48.035167
F0.015809558
tp5885
Rp5886
ag4
(F48.035108
F0.015785781
tp5887
Rp5888
ag4
(F48.035048
F0.01576203
tp5889
Rp5890
ag4
(F48.034988
F0.015738279
tp5891
Rp5892
ag4
(F48.034928
F0.015714528
tp5893
Rp5894
ag4
(F48.034868
F0.015690777
tp5895
Rp5896
ag4
(F48.034812
F0.015667914
tp5897
Rp5898
ag4
(F48.034757
F0.015645308
tp5899
Rp5900
ag4
(F48.034702
F0.015622701
tp5901
Rp5902
ag4
(F48.034646
F0.015600095
tp5903
Rp5904
ag4
(F48.034591
F0.015577489
tp5905
Rp5906
ag4
(F48.034535
F0.015554883
tp5907
Rp5908
ag4
(F48.034479
F0.015532277
tp5909
Rp5910
ag4
(F48.034424
F0.015509671
tp5911
Rp5912
ag4
(F48.034368
F0.015487065
tp5913
Rp5914
ag4
(F48.034312
F0.015464458
tp5915
Rp5916
ag4
(F48.034256
F0.015441852
tp5917
Rp5918
ag4
(F48.0342
F0.015419246
tp5919
Rp5920
ag4
(F48.034144
F0.01539664
tp5921
Rp5922
ag4
(F48.034088
F0.015374034
tp5923
Rp5924
ag4
(F48.034032
F0.015351428
tp5925
Rp5926
ag4
(F48.033976
F0.015328822
tp5927
Rp5928
ag4
(F48.033921
F0.015306215
tp5929
Rp5930
ag4
(F48.033866
F0.015283609
tp5931
Rp5932
ag4
(F48.033811
F0.015261003
tp5933
Rp5934
ag4
(F48.033756
F0.015238397
tp5935
Rp5936
ag4
(F48.0337
F0.015215791
tp5937
Rp5938
ag4
(F48.033644
F0.015193185
tp5939
Rp5940
ag4
(F48.033588
F0.015170579
tp5941
Rp5942
ag4
(F48.033532
F0.015147973
tp5943
Rp5944
ag4
(F48.033476
F0.015125367
tp5945
Rp5946
ag4
(F48.03342
F0.015103704
tp5947
Rp5948
ag4
(F48.033365
F0.015082146
tp5949
Rp5950
ag4
(F48.03331
F0.015060587
tp5951
Rp5952
ag4
(F48.033255
F0.015039029
tp5953
Rp5954
ag4
(F48.0332
F0.01501747
tp5955
Rp5956
ag4
(F48.033145
F0.01499603
tp5957
Rp5958
ag4
(F48.033091
F0.014974598
tp5959
Rp5960
ag4
(F48.033036
F0.014953167
tp5961
Rp5962
ag4
(F48.032982
F0.014931736
tp5963
Rp5964
ag4
(F48.032927
F0.014910305
tp5965
Rp5966
ag4
(F48.032872
F0.014888873
tp5967
Rp5968
ag4
(F48.032817
F0.014867442
tp5969
Rp5970
ag4
(F48.032762
F0.01484601
tp5971
Rp5972
ag4
(F48.032707
F0.014824579
tp5973
Rp5974
ag4
(F48.032651
F0.014803147
tp5975
Rp5976
ag4
(F48.032597
F0.014781716
tp5977
Rp5978
ag4
(F48.032542
F0.014760285
tp5979
Rp5980
ag4
(F48.032488
F0.014738853
tp5981
Rp5982
ag4
(F48.032434
F0.014717422
tp5983
Rp5984
ag4
(F48.032379
F0.014695991
tp5985
Rp5986
asb.