(iocelot.optics.bragg
CrystalStructureFactors
p0
(dp1
S'fh'
p2
(lp3
c__builtin__
complex
p4
(F3.9240178000000001
F3.9448606000000002
tp5
Rp6
ag4
(F3.9239978
F3.9448083999999999
tp7
Rp8
ag4
(F3.9239779000000001
F3.9447562
tp9
Rp10
ag4
(F3.9239579
F3.9447040000000002
tp11
Rp12
ag4
(F3.9239378999999999
F3.9446517999999999
tp13
Rp14
ag4
(F3.923918
F3.9445996000000001
tp15
Rp16
ag4
(F3.9238979999999999
F3.9445473999999998
tp17
Rp18
ag4
(F3.9238780000000002
F3.9444952
tp19
Rp20
ag4
(F3.9238580000000001
F3.9444430000000001
tp21
Rp22
ag4
(F3.9238379000000001
F3.944391
tp23
Rp24
ag4
(F3.9238178000000001
F3.9443389
tp25
Rp26
ag4
(F3.9237977000000002
F3.9442868999999998
tp27
Rp28
ag4
(F3.9237776000000002
F3.9442347999999998
tp29
Rp30
ag4
(F3.9237574999999998
F3.9441828000000001
tp31
Rp32
ag4
(F3.9237373999999998
F3.9441321
tp33
Rp34
ag4
(F3.9237174000000001
F3.9440814
tp35
Rp36
ag4
(F3.9236973000000002
F3.9440308000000002
tp37
Rp38
ag4
(F3.9236772000000002
F3.9439801000000001
tp39
Rp40
ag4
(F3.9236572000000001
F3.9439294
tp41
Rp42
ag4
(F3.9236369
F3.9438784999999998
tp43
Rp44
ag4
(F3.9236163999999998
F3.9438274999999998
tp45
Rp46
ag4
(F3.9235959999999999
F3.9437764999999998
tp47
Rp48
ag4
(F3.9235755999999999
F3.9437255000000002
tp49
Rp50
ag4
(F3.9235552
F3.9436745000000002
tp51
Rp52
ag4
(F3.9235348000000001
F3.9436236
tp53
Rp54
ag4
(F3.9235148
F3.9435728999999999
tp55
Rp56
ag4
(F3.9234947
F3.9435221999999999
tp57
Rp58
ag4
(F3.9234746
F3.9434716000000001
tp59
Rp60
ag4
(F3.9234545999999999
F3.9434209
tp61
Rp62
ag4
(F3.9234344999999999
F3.9433701999999999
tp63
Rp64
ag4
(F3.9234141
F3.9433191999999999
tp65
Rp66
ag4
(F3.9233937000000001
F3.9432681999999999
tp67
Rp68
ag4
(F3.9233731999999999
F3.9432171999999999
tp69
Rp70
ag4
(F3.9233528
F3.9431661999999998
tp71
Rp72
ag4
(F3.9233324000000001
F3.9431151999999998
tp73
Rp74
ag4
(F3.9233121
F3.9430649
tp75
Rp76
ag4
(F3.923292
F3.9430149999999999
tp77
Rp78
ag4
(F3.9232718000000002
F3.9429650999999999
tp79
Rp80
ag4
(F3.9232516999999998
F3.9429151999999998
tp81
Rp82
ag4
(F3.9232315999999998
F3.9428652999999998
tp83
Rp84
ag4
(F3.9232113000000002
F3.9428155999999999
tp85
Rp86
ag4
(F3.9231908
F3.9427661000000001
tp87
Rp88
ag4
(F3.9231703000000002
F3.9427165999999998
tp89
Rp90
ag4
(F3.9231498
F3.9426671
tp91
Rp92
ag4
(F3.9231292999999998
F3.9426174999999999
tp93
Rp94
ag4
(F3.9231088000000001
F3.9425680000000001
tp95
Rp96
ag4
(F3.9230882999999999
F3.9425184999999998
tp97
Rp98
ag4
(F3.9230678000000001
F3.942469
tp99
Rp100
ag4
(F3.9230472000000001
F3.9424195000000002
tp101
Rp102
ag4
(F3.9230266999999999
F3.9423699999999999
tp103
Rp104
ag4
(F3.9230062000000001
F3.9423205000000001
tp105
Rp106
ag4
(F3.9229856999999999
F3.9422709999999999
tp107
Rp108
ag4
(F3.9229652000000002
F3.9422215
tp109
Rp110
ag4
(F3.9229447
F3.9421719999999998
tp111
Rp112
ag4
(F3.9229242000000002
F3.9421225
tp113
Rp114
ag4
(F3.9229037
F3.9420730000000002
tp115
Rp116
ag4
(F3.9228831999999998
F3.9420234999999999
tp117
Rp118
ag4
(F3.9228627
F3.9419740000000001
tp119
Rp120
ag4
(F3.9228421
F3.9419244
tp121
Rp122
ag4
(F3.9228215999999998
F3.9418749000000002
tp123
Rp124
ag4
(F3.9228011
F3.9418253999999999
tp125
Rp126
ag4
(F3.9227805999999998
F3.9417759000000001
tp127
Rp128
ag4
(F3.9227612000000001
F3.9417285999999998
tp129
Rp130
ag4
(F3.9227419000000001
F3.9416815000000001
tp131
Rp132
ag4
(F3.9227224999999999
F3.9416343999999999
tp133
Rp134
ag4
(F3.9227031999999999
F3.9415873000000001
tp135
Rp136
ag4
(F3.9226839
F3.9415401999999999
tp137
Rp138
ag4
(F3.9226646999999999
F3.9414934000000001
tp139
Rp140
ag4
(F3.9226456000000001
F3.9414468
tp141
Rp142
ag4
(F3.9226264
F3.9414001000000001
tp143
Rp144
ag4
(F3.9226073000000001
F3.9413535
tp145
Rp146
ag4
(F3.9225881999999999
F3.9413068999999998
tp147
Rp148
ag4
(F3.9225691
F3.9412603000000002
tp149
Rp150
ag4
(F3.9225500000000002
F3.9412136000000002
tp151
Rp152
ag4
(F3.9225308999999999
F3.9411670000000001
tp153
Rp154
ag4
(F3.9225118000000001
F3.9411204
tp155
Rp156
ag4
(F3.9224926999999998
F3.9410737999999998
tp157
Rp158
ag4
(F3.9224736
F3.9410272000000002
tp159
Rp160
ag4
(F3.9224545000000002
F3.9409805000000002
tp161
Rp162
ag4
(F3.9224353999999999
F3.9409339000000001
tp163
Rp164
ag4
(F3.9224163000000001
F3.9408873
tp165
Rp166
ag4
(F3.9223971999999998
F3.9408406999999999
tp167
Rp168
ag4
(F3.9223780000000001
F3.9407939999999999
tp169
Rp170
ag4
(F3.9223591
F3.9407475999999999
tp171
Rp172
ag4
(F3.9223403999999999
F3.9407014
tp173
Rp174
ag4
(F3.9223216000000001
F3.9406552000000001
tp175
Rp176
ag4
(F3.9223028000000002
F3.9406089
tp177
Rp178
ag4
(F3.9222839999999999
F3.9405627000000001
tp179
Rp180
ag4
(F3.9222654000000001
F3.9405169
tp181
Rp182
ag4
(F3.9222473999999998
F3.9404728000000002
tp183
Rp184
ag4
(F3.9222294
F3.9404287
tp185
Rp186
ag4
(F3.9222112999999998
F3.9403845
tp187
Rp188
ag4
(F3.9221933
F3.9403404000000002
tp189
Rp190
ag4
(F3.9221753000000001
F3.9402963
tp191
Rp192
ag4
(F3.9221575
F3.9402525000000002
tp193
Rp194
ag4
(F3.9221398999999999
F3.9402086999999999
tp195
Rp196
ag4
(F3.9221222
F3.9401649999999999
tp197
Rp198
ag4
(F3.9221045000000001
F3.9401212000000001
tp199
Rp200
ag4
(F3.9220868000000002
F3.9400773999999998
tp201
Rp202
ag4
(F3.9220692000000001
F3.9400336999999999
tp203
Rp204
ag4
(F3.9220514999999998
F3.9399899
tp205
Rp206
ag4
(F3.9220337999999999
F3.9399460999999998
tp207
Rp208
ag4
(F3.9220161
F3.9399023999999998
tp209
Rp210
ag4
(F3.9219984000000001
F3.9398586
tp211
Rp212
ag4
(F3.9219808
F3.9398148000000002
tp213
Rp214
ag4
(F3.9219631000000001
F3.9397711000000002
tp215
Rp216
ag4
(F3.9219453999999998
F3.9397272999999999
tp217
Rp218
ag4
(F3.9219276999999999
F3.9396835000000001
tp219
Rp220
ag4
(F3.9219100999999998
F3.9396398000000001
tp221
Rp222
ag4
(F3.9218923999999999
F3.9395959999999999
tp223
Rp224
ag4
(F3.9218746000000002
F3.9395522999999999
tp225
Rp226
ag4
(F3.9218568
F3.9395087000000002
tp227
Rp228
ag4
(F3.9218389999999999
F3.9394650000000002
tp229
Rp230
ag4
(F3.9218212000000001
F3.9394214000000001
tp231
Rp232
ag4
(F3.9218035000000002
F3.9393777000000001
tp233
Rp234
ag4
(F3.9217856000000002
F3.9393346
tp235
Rp236
ag4
(F3.9217675999999999
F3.9392917999999999
tp237
Rp238
ag4
(F3.9217496000000001
F3.9392491000000001
tp239
Rp240
ag4
(F3.9217316000000002
F3.9392064000000002
tp241
Rp242
ag4
(F3.9217135999999999
F3.9391636000000001
tp243
Rp244
ag4
(F3.9216956000000001
F3.9391208999999998
tp245
Rp246
ag4
(F3.9216776000000002
F3.9390781000000001
tp247
Rp248
ag4
(F3.9216595999999999
F3.9390353999999999
tp249
Rp250
ag4
(F3.9216416000000001
F3.9389927
tp251
Rp252
ag4
(F3.9216236000000002
F3.9389498999999999
tp253
Rp254
ag4
(F3.9216055999999999
F3.9389072000000001
tp255
Rp256
ag4
(F3.9215879
F3.9388648000000002
tp257
Rp258
ag4
(F3.9215703
F3.9388223999999998
tp259
Rp260
ag4
(F3.9215526999999999
F3.9387799999999999
tp261
Rp262
ag4
(F3.921535
F3.9387376000000001
tp263
Rp264
ag4
(F3.9215173999999999
F3.9386953
tp265
Rp266
ag4
(F3.9214996000000002
F3.9386527
tp267
Rp268
ag4
(F3.9214815999999999
F3.9386100000000002
tp269
Rp270
ag4
(F3.9214636
F3.9385672
tp271
Rp272
ag4
(F3.9214456000000002
F3.9385245000000002
tp273
Rp274
ag4
(F3.9214275999999999
F3.9384817999999999
tp275
Rp276
ag4
(F3.9214096000000001
F3.9384391000000001
tp277
Rp278
ag4
(F3.9213917999999999
F3.9383968999999999
tp279
Rp280
ag4
(F3.9213741
F3.9383545999999998
tp281
Rp282
ag4
(F3.9213562999999998
F3.9383124
tp283
Rp284
ag4
(F3.9213385000000001
F3.9382701999999998
tp285
Rp286
ag4
(F3.9213206999999999
F3.9382278999999998
tp287
Rp288
ag4
(F3.9213040000000001
F3.9381876
tp289
Rp290
ag4
(F3.9212875
F3.9381477
tp291
Rp292
ag4
(F3.9212710999999998
F3.9381077000000002
tp293
Rp294
ag4
(F3.9212546000000001
F3.9380677999999998
tp295
Rp296
ag4
(F3.9212381000000001
F3.9380278
tp297
Rp298
ag4
(F3.9212216
F3.9379879
tp299
Rp300
ag4
(F3.9212050999999999
F3.9379479000000002
tp301
Rp302
ag4
(F3.9211885999999998
F3.9379080000000002
tp303
Rp304
ag4
(F3.9211721000000002
F3.9378679999999999
tp305
Rp306
ag4
(F3.9211556000000001
F3.9378280999999999
tp307
Rp308
ag4
(F3.9211391
F3.9377881000000001
tp309
Rp310
ag4
(F3.9211222000000001
F3.9377477999999999
tp311
Rp312
ag4
(F3.9211054000000001
F3.9377075000000001
tp313
Rp314
ag4
(F3.9210885000000002
F3.9376671000000001
tp315
Rp316
ag4
(F3.9210717000000002
F3.9376267999999999
tp317
Rp318
ag4
(F3.9210547999999998
F3.9375865000000001
tp319
Rp320
ag4
(F3.9210381999999999
F3.9375464999999998
tp321
Rp322
ag4
(F3.9210218000000001
F3.9375065999999999
tp323
Rp324
ag4
(F3.9210053
F3.9374666
tp325
Rp326
ag4
(F3.9209887999999999
F3.9374267000000001
tp327
Rp328
ag4
(F3.9209722999999999
F3.9373866999999998
tp329
Rp330
ag4
(F3.9209556999999999
F3.9373467999999998
tp331
Rp332
ag4
(F3.9209391
F3.9373070000000001
tp333
Rp334
ag4
(F3.9209225000000001
F3.9372672
tp335
Rp336
ag4
(F3.9209059000000002
F3.9372273
tp337
Rp338
ag4
(F3.9208892999999998
F3.9371874999999998
tp339
Rp340
ag4
(F3.9208726
F3.9371478
tp341
Rp342
ag4
(F3.9208558999999998
F3.9371087999999999
tp343
Rp344
ag4
(F3.9208390999999998
F3.9370698000000002
tp345
Rp346
ag4
(F3.9208224
F3.9370308999999999
tp347
Rp348
ag4
(F3.9208056
F3.9369919000000002
tp349
Rp350
ag4
(F3.9207888999999998
F3.9369529000000001
tp351
Rp352
ag4
(F3.9207721000000002
F3.9369139
tp353
Rp354
ag4
(F3.9207554
F3.9368750000000001
tp355
Rp356
ag4
(F3.9207386
F3.936836
tp357
Rp358
ag4
(F3.9207219000000002
F3.9367969999999999
tp359
Rp360
ag4
(F3.9207051000000002
F3.9367580000000002
tp361
Rp362
ag4
(F3.9206884
F3.9367190000000001
tp363
Rp364
ag4
(F3.9206715999999999
F3.9366800999999998
tp365
Rp366
ag4
(F3.9206549000000002
F3.9366411000000001
tp367
Rp368
ag4
(F3.9206382
F3.9366021
tp369
Rp370
ag4
(F3.9206213999999999
F3.9365630999999999
tp371
Rp372
ag4
(F3.9206047000000002
F3.9365242
tp373
Rp374
ag4
(F3.9205879000000001
F3.9364851999999999
tp375
Rp376
ag4
(F3.9205711999999999
F3.9364461999999998
tp377
Rp378
ag4
(F3.9205543999999999
F3.9364072000000001
tp379
Rp380
ag4
(F3.9205377000000001
F3.9363682
tp381
Rp382
ag4
(F3.9205209000000001
F3.9363293000000001
tp383
Rp384
ag4
(F3.9205041
F3.9362903
tp385
Rp386
ag4
(F3.9204873
F3.9362514000000002
tp387
Rp388
ag4
(F3.9204705
F3.9362124999999999
tp389
Rp390
ag4
(F3.9204536999999999
F3.9361735000000002
tp391
Rp392
ag4
(F3.9204368999999999
F3.9361345999999999
tp393
Rp394
ag4
(F3.9204208
F3.9360968999999999
tp395
Rp396
ag4
(F3.9204056999999999
F3.9360605999999998
tp397
Rp398
ag4
(F3.9203904999999999
F3.9360244
tp399
Rp400
ag4
(F3.9203752999999999
F3.9359880999999999
tp401
Rp402
ag4
(F3.9203600999999999
F3.9359519000000001
tp403
Rp404
ag4
(F3.9203448999999999
F3.9359156
tp405
Rp406
ag4
(F3.9203293000000001
F3.9358789999999999
tp407
Rp408
ag4
(F3.9203138000000002
F3.9358423999999999
tp409
Rp410
ag4
(F3.9202982
F3.9358057
tp411
Rp412
ag4
(F3.9202827
F3.9357690999999999
tp413
Rp414
ag4
(F3.9202670999999998
F3.9357324999999999
tp415
Rp416
ag4
(F3.9202515999999998
F3.9356958999999998
tp417
Rp418
ag4
(F3.9202360000000001
F3.9356593000000002
tp419
Rp420
ag4
(F3.9202205000000001
F3.9356227000000001
tp421
Rp422
ag4
(F3.9202048999999999
F3.9355861000000001
tp423
Rp424
ag4
(F3.9201893999999999
F3.9355495
tp425
Rp426
ag4
(F3.9201739999999998
F3.9355129999999998
tp427
Rp428
ag4
(F3.9201587999999998
F3.9354768
tp429
Rp430
ag4
(F3.9201435999999998
F3.9354404999999999
tp431
Rp432
ag4
(F3.9201283999999998
F3.9354043000000001
tp433
Rp434
ag4
(F3.9201133000000001
F3.935368
tp435
Rp436
ag4
(F3.9200979999999999
F3.9353316999999999
tp437
Rp438
ag4
(F3.9200824999999999
F3.9352950999999998
tp439
Rp440
ag4
(F3.9200669000000001
F3.9352585000000002
tp441
Rp442
ag4
(F3.9200514000000002
F3.9352219000000002
tp443
Rp444
ag4
(F3.9200358999999998
F3.9351853000000001
tp445
Rp446
ag4
(F3.9200203
F3.9351487000000001
tp447
Rp448
ag4
(F3.9200046999999998
F3.9351126999999999
tp449
Rp450
ag4
(F3.9199890000000002
F3.9350768999999999
tp451
Rp452
ag4
(F3.9199733000000001
F3.9350412000000001
tp453
Rp454
ag4
(F3.9199576
F3.9350054000000001
tp455
Rp456
ag4
(F3.9199419999999998
F3.9349696000000001
tp457
Rp458
ag4
(F3.9199264
F3.9349341
tp459
Rp460
ag4
(F3.9199109999999999
F3.9348987000000002
tp461
Rp462
ag4
(F3.9198955999999998
F3.9348633999999998
tp463
Rp464
ag4
(F3.9198803
F3.934828
tp465
Rp466
ag4
(F3.9198648999999999
F3.9347927
tp467
Rp468
ag4
(F3.9198495000000002
F3.9347572999999998
tp469
Rp470
ag4
(F3.9198336999999999
F3.9347216
tp471
Rp472
ag4
(F3.9198179999999998
F3.9346858999999998
tp473
Rp474
ag4
(F3.9198023000000002
F3.9346502000000001
tp475
Rp476
ag4
(F3.9197864999999998
F3.9346144999999999
tp477
Rp478
ag4
(F3.9197708000000002
F3.9345788000000002
tp479
Rp480
ag4
(F3.9197552999999998
F3.9345433000000001
tp481
Rp482
ag4
(F3.9197399000000002
F3.9345080000000001
tp483
Rp484
ag4
(F3.9197245999999999
F3.9344725999999999
tp485
Rp486
ag4
(F3.9197091999999998
F3.9344372999999999
tp487
Rp488
ag4
(F3.9196938000000001
F3.9344019000000001
tp489
Rp490
ag4
(F3.9196783000000002
F3.9343664
tp491
Rp492
ag4
(F3.9196626000000001
F3.9343306999999998
tp493
Rp494
ag4
(F3.9196468000000002
F3.9342950000000001
tp495
Rp496
ag4
(F3.9196311000000001
F3.9342592999999999
tp497
Rp498
ag4
(F3.9196152999999998
F3.9342236000000002
tp499
Rp500
ag4
(F3.9195997
F3.9341879999999998
tp501
Rp502
ag4
(F3.9195850000000001
F3.9341541000000002
tp503
Rp504
ag4
(F3.9195704
F3.9341200999999999
tp505
Rp506
ag4
(F3.9195557999999999
F3.9340861
tp507
Rp508
ag4
(F3.9195411
F3.9340522
tp509
Rp510
ag4
(F3.9195264999999999
F3.9340182000000001
tp511
Rp512
ag4
(F3.9195120000000001
F3.9339846999999999
tp513
Rp514
ag4
(F3.9194974999999999
F3.9339512999999999
tp515
Rp516
ag4
(F3.9194830999999999
F3.9339179
tp517
Rp518
ag4
(F3.9194686000000001
F3.9338845
tp519
Rp520
ag4
(F3.9194540999999998
F3.9338511
tp521
Rp522
ag4
(F3.9194396
F3.9338177000000001
tp523
Rp524
ag4
(F3.9194252000000001
F3.9337843000000001
tp525
Rp526
ag4
(F3.9194106999999998
F3.9337509000000002
tp527
Rp528
ag4
(F3.9193962
F3.9337175000000002
tp529
Rp530
ag4
(F3.9193817000000002
F3.9336840999999998
tp531
Rp532
ag4
(F3.9193673000000002
F3.9336506999999998
tp533
Rp534
ag4
(F3.9193532000000002
F3.9336177000000001
tp535
Rp536
ag4
(F3.9193389999999999
F3.9335846999999999
tp537
Rp538
ag4
(F3.9193248999999999
F3.9335515999999999
tp539
Rp540
ag4
(F3.9193107999999999
F3.9335186000000002
tp541
Rp542
ag4
(F3.9192966999999999
F3.9334856
tp543
Rp544
ag4
(F3.9192822999999999
F3.9334522999999999
tp545
Rp546
ag4
(F3.9192678999999999
F3.9334188999999999
tp547
Rp548
ag4
(F3.9192534000000001
F3.9333855
tp549
Rp550
ag4
(F3.9192388999999999
F3.9333521
tp551
Rp552
ag4
(F3.9192244000000001
F3.9333187000000001
tp553
Rp554
ag4
(F3.9192100000000001
F3.9332855000000002
tp555
Rp556
ag4
(F3.9191957999999998
F3.9332525999999999
tp557
Rp558
ag4
(F3.9191815999999999
F3.9332196000000001
tp559
Rp560
ag4
(F3.9191672999999998
F3.9331866999999998
tp561
Rp562
ag4
(F3.9191530999999999
F3.9331537999999999
tp563
Rp564
ag4
(F3.9191387999999998
F3.9331209
tp565
Rp566
ag4
(F3.9191246
F3.9330888000000002
tp567
Rp568
ag4
(F3.9191102999999998
F3.9330566
tp569
Rp570
ag4
(F3.9190961
F3.9330243999999999
tp571
Rp572
ag4
(F3.9190817999999998
F3.9329922000000002
tp573
Rp574
ag4
(F3.9190675000000001
F3.93296
tp575
Rp576
ag4
(F3.9190529999999999
F3.9329276000000002
tp577
Rp578
ag4
(F3.9190383999999998
F3.9328951000000001
tp579
Rp580
ag4
(F3.9190238000000002
F3.9328625000000001
tp581
Rp582
ag4
(F3.9190092000000001
F3.93283
tp583
Rp584
ag4
(F3.9189946
F3.9327974000000001
tp585
Rp586
ag4
(F3.9189801000000002
F3.9327649999999998
tp587
Rp588
ag4
(F3.9189658000000001
F3.9327328000000001
tp589
Rp590
ag4
(F3.9189516000000002
F3.9327006999999998
tp591
Rp592
ag4
(F3.9189373000000001
F3.9326685000000001
tp593
Rp594
ag4
(F3.9189231000000002
F3.9326363
tp595
Rp596
ag4
(F3.9189088000000001
F3.9326040999999998
tp597
Rp598
ag4
(F3.9188931
F3.9325692000000001
tp599
Rp600
ag4
(F3.9188774999999998
F3.9325344000000002
tp601
Rp602
ag4
(F3.9188618000000002
F3.9324995
tp603
Rp604
ag4
(F3.9188461999999999
F3.9324647000000001
tp605
Rp606
ag4
(F3.9188304999999999
F3.9324298
tp607
Rp608
ag4
(F3.9188152000000001
F3.9323953
tp609
Rp610
ag4
(F3.9188000000000001
F3.9323608000000001
tp611
Rp612
ag4
(F3.9187846999999998
F3.9323264
tp613
Rp614
ag4
(F3.9187694
F3.9322919000000001
tp615
Rp616
ag4
(F3.9187541000000001
F3.9322574000000001
tp617
Rp618
ag4
(F3.9187395999999999
F3.9322244999999998
tp619
Rp620
ag4
(F3.9187251000000001
F3.9321915999999999
tp621
Rp622
ag4
(F3.9187105
F3.9321587
tp623
Rp624
ag4
(F3.9186960000000002
F3.9321258000000001
tp625
Rp626
ag4
(F3.9186814999999999
F3.9320928999999998
tp627
Rp628
ag4
(F3.9186676
F3.9320607999999999
tp629
Rp630
ag4
(F3.9186538
F3.9320287
tp631
Rp632
ag4
(F3.9186399000000001
F3.9319967
tp633
Rp634
ag4
(F3.9186260000000002
F3.9319646000000001
tp635
Rp636
ag4
(F3.9186120999999998
F3.9319324999999998
tp637
Rp638
ag4
(F3.9185979
F3.9319001
tp639
Rp640
ag4
(F3.9185835999999998
F3.9318675999999999
tp641
Rp642
ag4
(F3.9185694
F3.9318352000000001
tp643
Rp644
ag4
(F3.9185550999999998
F3.9318027
tp645
Rp646
ag4
(F3.9185409
F3.9317703000000002
tp647
Rp648
ag4
(F3.9185265999999999
F3.9317378999999999
tp649
Rp650
ag4
(F3.9185124
F3.9317053999999998
tp651
Rp652
ag4
(F3.9184982000000002
F3.931673
tp653
Rp654
ag4
(F3.9184839
F3.9316404999999999
tp655
Rp656
ag4
(F3.9184697000000002
F3.9316081000000001
tp657
Rp658
ag4
(F3.9184557999999998
F3.9315760000000002
tp659
Rp660
ag4
(F3.9184420000000002
F3.9315440000000001
tp661
Rp662
ag4
(F3.9184280999999999
F3.9315118999999998
tp663
Rp664
ag4
(F3.9184142
F3.9314798999999998
tp665
Rp666
ag4
(F3.9184003000000001
F3.9314477999999999
tp667
Rp668
ag4
(F3.9183859000000001
F3.9314155
tp669
Rp670
ag4
(F3.9183715000000001
F3.9313831000000001
tp671
Rp672
ag4
(F3.9183571000000001
F3.9313508000000001
tp673
Rp674
ag4
(F3.9183428
F3.9313185000000002
tp675
Rp676
ag4
(F3.9183284
F3.9312863999999998
tp677
Rp678
ag4
(F3.9183145000000001
F3.9312551999999998
tp679
Rp680
ag4
(F3.9183005
F3.9312239999999998
tp681
Rp682
ag4
(F3.9182864999999998
F3.9311927999999998
tp683
Rp684
ag4
(F3.9182725999999999
F3.9311615999999998
tp685
Rp686
ag4
(F3.9182584999999999
F3.9311303
tp687
Rp688
ag4
(F3.9182442000000002
F3.9310988
tp689
Rp690
ag4
(F3.9182298000000002
F3.9310672000000002
tp691
Rp692
ag4
(F3.9182155000000001
F3.9310356
tp693
Rp694
ag4
(F3.9182011000000001
F3.9310040000000002
tp695
Rp696
ag4
(F3.9181868
F3.9309725000000002
tp697
Rp698
ag4
(F3.9181729000000001
F3.9309413000000002
tp699
Rp700
ag4
(F3.9181588999999999
F3.9309101000000002
tp701
Rp702
ag4
(F3.9181449000000002
F3.9308789000000002
tp703
Rp704
ag4
(F3.9181309
F3.9308477000000002
tp705
Rp706
ag4
(F3.9181168999999998
F3.9308165000000002
tp707
Rp708
ag4
(F3.9181026000000001
F3.9307848999999999
tp709
Rp710
ag4
(F3.9180882000000001
F3.9307533000000001
tp711
Rp712
ag4
(F3.9180738000000002
F3.9307216999999999
tp713
Rp714
ag4
(F3.9180595
F3.9306901999999999
tp715
Rp716
ag4
(F3.9180451000000001
F3.9306586000000001
tp717
Rp718
ag4
(F3.9180307999999999
F3.9306269999999999
tp719
Rp720
ag4
(F3.9180164
F3.9305954000000001
tp721
Rp722
ag4
(F3.9180020999999998
F3.9305639000000001
tp723
Rp724
ag4
(F3.9179876999999999
F3.9305322999999999
tp725
Rp726
ag4
(F3.9179735999999998
F3.9305010999999999
tp727
Rp728
ag4
(F3.9179605
F3.9304714000000001
tp729
Rp730
ag4
(F3.9179474000000001
F3.9304416
tp731
Rp732
ag4
(F3.9179343000000002
F3.9304119000000002
tp733
Rp734
ag4
(F3.9179211999999999
F3.9303821000000001
tp735
Rp736
ag4
(F3.9179081
F3.9303525000000001
tp737
Rp738
ag4
(F3.9178951999999998
F3.9303233
tp739
Rp740
ag4
(F3.9178823
F3.930294
tp741
Rp742
ag4
(F3.9178693999999998
F3.9302647999999998
tp743
Rp744
ag4
(F3.9178565999999999
F3.9302356000000001
tp745
Rp746
ag4
(F3.9178435999999999
F3.9302063
tp747
Rp748
ag4
(F3.9178302999999999
F3.9301767000000001
tp749
Rp750
ag4
(F3.9178169999999999
F3.9301471000000001
tp751
Rp752
ag4
(F3.9178038000000002
F3.9301175000000002
tp753
Rp754
ag4
(F3.9177905000000002
F3.9300879000000002
tp755
Rp756
ag4
(F3.9177773
F3.9300584000000001
tp757
Rp758
ag4
(F3.9177643999999998
F3.9300291999999999
tp759
Rp760
ag4
(F3.9177515000000001
F3.9300000000000002
tp761
Rp762
ag4
(F3.9177385999999998
F3.9299708
tp763
Rp764
ag4
(F3.9177257999999999
F3.9299415999999998
tp765
Rp766
ag4
(F3.9177129000000002
F3.9299124000000001
tp767
Rp768
ag4
(F3.9177
F3.9298831999999999
tp769
Rp770
ag4
(F3.9176871000000002
F3.9298540000000002
tp771
Rp772
ag4
(F3.9176742
F3.9298247000000002
tp773
Rp774
ag4
(F3.9176612999999998
F3.9297955
tp775
Rp776
ag4
(F3.9176484
F3.9297662999999998
tp777
Rp778
ag4
(F3.9176354999999998
F3.9297371000000001
tp779
Rp780
ag4
(F3.9176226000000001
F3.9297078999999999
tp781
Rp782
ag4
(F3.9176098000000001
F3.9296787000000002
tp783
Rp784
ag4
(F3.9175968999999999
F3.9296495
tp785
Rp786
ag4
(F3.9175840000000002
F3.9296205
tp787
Rp788
ag4
(F3.9175710000000001
F3.9295920999999998
tp789
Rp790
ag4
(F3.9175580999999999
F3.9295637000000001
tp791
Rp792
ag4
(F3.9175452000000002
F3.9295352000000001
tp793
Rp794
ag4
(F3.9175323
F3.9295068
tp795
Rp796
ag4
(F3.9175194000000002
F3.9294783999999998
tp797
Rp798
ag4
(F3.9175064000000002
F3.9294500000000001
tp799
Rp800
ag4
(F3.9174935
F3.9294216
tp801
Rp802
ag4
(F3.9174804999999999
F3.9293931999999998
tp803
Rp804
ag4
(F3.9174676000000002
F3.9293648000000001
tp805
Rp806
ag4
(F3.9174547
F3.9293364999999998
tp807
Rp808
ag4
(F3.9174416999999999
F3.9293081000000001
tp809
Rp810
ag4
(F3.9174288000000002
F3.9292796999999999
tp811
Rp812
ag4
(F3.9174158000000001
F3.9292512999999998
tp813
Rp814
ag4
(F3.9174028999999999
F3.9292229000000001
tp815
Rp816
ag4
(F3.9173898999999999
F3.9291944999999999
tp817
Rp818
ag4
(F3.9173770000000001
F3.9291661000000002
tp819
Rp820
ag4
(F3.9173640000000001
F3.9291377000000001
tp821
Rp822
ag4
(F3.9173510999999999
F3.9291092999999999
tp823
Rp824
ag4
(F3.9173382000000001
F3.9290809000000002
tp825
Rp826
ag4
(F3.9173250999999998
F3.9290523999999998
tp827
Rp828
ag4
(F3.9173117
F3.9290235999999998
tp829
Rp830
ag4
(F3.9172984
F3.9289947999999999
tp831
Rp832
ag4
(F3.9172851
F3.9289660999999998
tp833
Rp834
ag4
(F3.9172718
F3.9289372999999999
tp835
Rp836
ag4
(F3.9172585999999998
F3.9289087
tp837
Rp838
ag4
(F3.9172456000000002
F3.9288802999999999
tp839
Rp840
ag4
(F3.9172326000000002
F3.928852
tp841
Rp842
ag4
(F3.9172196000000001
F3.9288237000000001
tp843
Rp844
ag4
(F3.9172066000000001
F3.9287953
tp845
Rp846
ag4
(F3.9171936000000001
F3.9287673000000001
tp847
Rp848
ag4
(F3.9171806
F3.9287396999999999
tp849
Rp850
ag4
(F3.9171676
F3.9287120999999998
tp851
Rp852
ag4
(F3.9171547000000002
F3.9286845000000001
tp853
Rp854
ag4
(F3.9171417000000002
F3.9286569
tp855
Rp856
ag4
(F3.9171287000000001
F3.9286292999999999
tp857
Rp858
ag4
(F3.9171157000000001
F3.9286017000000002
tp859
Rp860
ag4
(F3.9171027999999999
F3.9285741000000001
tp861
Rp862
ag4
(F3.9170897999999998
F3.9285464999999999
tp863
Rp864
ag4
(F3.9170767999999998
F3.9285188999999998
tp865
Rp866
ag4
(F3.9170639
F3.9284913000000001
tp867
Rp868
ag4
(F3.9170509
F3.9284637
tp869
Rp870
ag4
(F3.9170379
F3.9284360999999999
tp871
Rp872
ag4
(F3.9170248999999999
F3.9284085000000002
tp873
Rp874
ag4
(F3.9170120000000002
F3.9283809000000001
tp875
Rp876
ag4
(F3.9169988
F3.9283530999999998
tp877
Rp878
ag4
(F3.9169855
F3.9283252000000002
tp879
Rp880
ag4
(F3.9169721000000002
F3.9282971999999998
tp881
Rp882
ag4
(F3.9169586999999999
F3.9282691999999999
tp883
Rp884
ag4
(F3.9169453999999999
F3.9282412
tp885
Rp886
ag4
(F3.9169322000000002
F3.9282134000000002
tp887
Rp888
ag4
(F3.9169192000000002
F3.9281858000000001
tp889
Rp890
ag4
(F3.9169063
F3.9281581999999999
tp891
Rp892
ag4
(F3.9168932999999999
F3.9281305999999998
tp893
Rp894
ag4
(F3.9168802999999999
F3.9281030000000001
tp895
Rp896
ag4
(F3.9168674999999999
F3.9280756999999999
tp897
Rp898
ag4
(F3.9168547999999999
F3.9280485000000001
tp899
Rp900
ag4
(F3.9168421000000002
F3.9280214
tp901
Rp902
ag4
(F3.9168295
F3.9279942999999999
tp903
Rp904
ag4
(F3.9168167999999999
F3.9279671999999999
tp905
Rp906
ag4
(F3.9168045
F3.9279408
tp907
Rp908
ag4
(F3.9167926999999998
F3.9279150999999999
tp909
Rp910
ag4
(F3.9167809
F3.9278894000000002
tp911
Rp912
ag4
(F3.9167690999999998
F3.9278637000000001
tp913
Rp914
ag4
(F3.9167572000000002
F3.9278381000000002
tp915
Rp916
ag4
(F3.9167453999999999
F3.9278124000000001
tp917
Rp918
ag4
(F3.9167336000000001
F3.9277867
tp919
Rp920
ag4
(F3.9167217000000001
F3.9277609999999998
tp921
Rp922
ag4
(F3.9167098999999999
F3.9277354
tp923
Rp924
ag4
(F3.9166981000000001
F3.9277096999999999
tp925
Rp926
ag4
(F3.9166862
F3.9276840000000002
tp927
Rp928
ag4
(F3.9166743999999998
F3.9276583
tp929
Rp930
ag4
(F3.9166626
F3.9276325999999999
tp931
Rp932
ag4
(F3.9166506999999999
F3.9276070000000001
tp933
Rp934
ag4
(F3.9166389000000001
F3.9275812999999999
tp935
Rp936
ag4
(F3.9166270999999999
F3.9275555999999998
tp937
Rp938
ag4
(F3.9166153000000001
F3.9275299000000001
tp939
Rp940
ag4
(F3.9166034000000001
F3.9275042
tp941
Rp942
ag4
(F3.9165915999999998
F3.9274786000000002
tp943
Rp944
ag4
(F3.9165798000000001
F3.9274529
tp945
Rp946
ag4
(F3.9165679
F3.9274271999999999
tp947
Rp948
ag4
(F3.9165561000000002
F3.9274015000000002
tp949
Rp950
ag4
(F3.9165443
F3.9273758999999999
tp951
Rp952
ag4
(F3.9165323999999999
F3.9273501999999998
tp953
Rp954
ag4
(F3.9165206000000001
F3.9273245000000001
tp955
Rp956
ag4
(F3.9165087000000001
F3.9272988999999998
tp957
Rp958
ag4
(F3.9164968
F3.9272733
tp959
Rp960
ag4
(F3.9164848999999999
F3.9272477000000001
tp961
Rp962
ag4
(F3.9164729999999999
F3.9272220999999998
tp963
Rp964
ag4
(F3.9164610999999998
F3.9271965
tp965
Rp966
ag4
(F3.9164492000000002
F3.9271712999999999
tp967
Rp968
ag4
(F3.9164374
F3.9271463999999998
tp969
Rp970
ag4
(F3.9164256000000002
F3.9271215000000002
tp971
Rp972
ag4
(F3.9164137000000001
F3.9270966
tp973
Rp974
ag4
(F3.9164018999999999
F3.9270716000000001
tp975
Rp976
ag4
(F3.9163901000000001
F3.9270467
tp977
Rp978
ag4
(F3.9163782999999999
F3.9270217999999999
tp979
Rp980
ag4
(F3.9163665000000001
F3.9269968999999998
tp981
Rp982
ag4
(F3.9163546
F3.9269718999999998
tp983
Rp984
ag4
(F3.9163427999999998
F3.9269470000000002
tp985
Rp986
ag4
(F3.9163307000000001
F3.9269218000000001
tp987
Rp988
ag4
(F3.9163185
F3.9268964999999998
tp989
Rp990
ag4
(F3.9163063
F3.9268711999999999
tp991
Rp992
ag4
(F3.9162941
F3.9268459
tp993
Rp994
ag4
(F3.9162819
F3.9268206000000001
tp995
Rp996
ag4
(F3.9162699999999999
F3.9267956000000002
tp997
Rp998
ag4
(F3.9162582000000001
F3.9267706000000002
tp999
Rp1000
ag4
(F3.9162463000000001
F3.9267457000000001
tp1001
Rp1002
ag4
(F3.9162344999999998
F3.9267208
tp1003
Rp1004
ag4
(F3.9162227000000001
F3.9266958999999999
tp1005
Rp1006
ag4
(F3.9162108999999998
F3.9266709999999998
tp1007
Rp1008
ag4
(F3.9161991
F3.9266459999999999
tp1009
Rp1010
ag4
(F3.9161872
F3.9266211000000002
tp1011
Rp1012
ag4
(F3.9161754000000002
F3.9265962000000001
tp1013
Rp1014
ag4
(F3.9161636
F3.9265713
tp1015
Rp1016
ag4
(F3.9161518000000002
F3.9265463999999999
tp1017
Rp1018
ag4
(F3.9161399000000001
F3.9265215000000002
tp1019
Rp1020
ag4
(F3.9161280000000001
F3.9264966000000001
tp1021
Rp1022
ag4
(F3.9161161
F3.9264717
tp1023
Rp1024
ag4
(F3.9161043000000002
F3.9264469000000002
tp1025
Rp1026
ag4
(F3.9160933
F3.9264233000000002
tp1027
Rp1028
ag4
(F3.9160826000000002
F3.9264003000000001
tp1029
Rp1030
ag4
(F3.9160720000000002
F3.9263772000000001
tp1031
Rp1032
ag4
(F3.9160613999999998
F3.9263542
tp1033
Rp1034
ag4
(F3.9160507
F3.9263311999999999
tp1035
Rp1036
ag4
(F3.9160401
F3.9263081
tp1037
Rp1038
ag4
(F3.9160294000000002
F3.9262850999999999
tp1039
Rp1040
ag4
(F3.9160187999999998
F3.9262619999999999
tp1041
Rp1042
ag4
(F3.9160081999999998
F3.9262389999999998
tp1043
Rp1044
ag4
(F3.9159975
F3.9262160000000002
tp1045
Rp1046
ag4
(F3.9159869
F3.9261929000000002
tp1047
Rp1048
ag4
(F3.9159761999999998
F3.9261699000000001
tp1049
Rp1050
ag4
(F3.9159655999999998
F3.9261468000000002
tp1051
Rp1052
ag4
(F3.9159549
F3.9261238000000001
tp1053
Rp1054
ag4
(F3.9159443
F3.9261007999999999
tp1055
Rp1056
ag4
(F3.9159337000000001
F3.9260777
tp1057
Rp1058
ag4
(F3.9159229999999998
F3.9260546999999999
tp1059
Rp1060
ag4
(F3.9159123999999998
F3.9260316
tp1061
Rp1062
ag4
(F3.9159017
F3.9260085999999998
tp1063
Rp1064
ag4
(F3.9158911000000001
F3.9259856000000002
tp1065
Rp1066
ag4
(F3.9158803999999998
F3.9259624999999998
tp1067
Rp1068
ag4
(F3.9158697999999998
F3.9259395000000001
tp1069
Rp1070
ag4
(F3.9158591999999999
F3.9259164000000002
tp1071
Rp1072
ag4
(F3.9158485000000001
F3.9258934000000001
tp1073
Rp1074
ag4
(F3.9158379000000001
F3.9258704
tp1075
Rp1076
ag4
(F3.9158271999999998
F3.9258473
tp1077
Rp1078
ag4
(F3.9158165999999999
F3.9258242999999999
tp1079
Rp1080
ag4
(F3.9158059999999999
F3.9258012
tp1081
Rp1082
ag4
(F3.9157953000000001
F3.9257781999999999
tp1083
Rp1084
ag4
(F3.9157847000000001
F3.9257551999999998
tp1085
Rp1086
ag4
(F3.9157741000000001
F3.9257327000000002
tp1087
Rp1088
ag4
(F3.9157635000000002
F3.9257103999999998
tp1089
Rp1090
ag4
(F3.9157529000000002
F3.9256880000000001
tp1091
Rp1092
ag4
(F3.9157424000000001
F3.9256657000000001
tp1093
Rp1094
ag4
(F3.9157318000000001
F3.9256432999999999
tp1095
Rp1096
ag4
(F3.9157212000000001
F3.925621
tp1097
Rp1098
ag4
(F3.9157106000000002
F3.9255987000000001
tp1099
Rp1100
ag4
(F3.9157000000000002
F3.9255764000000002
tp1101
Rp1102
ag4
(F3.9156894000000002
F3.9255540999999998
tp1103
Rp1104
ag4
(F3.9156787999999998
F3.9255317000000001
tp1105
Rp1106
ag4
(F3.9156678999999999
F3.9255091000000002
tp1107
Rp1108
ag4
(F3.9156569000000001
F3.9254864
tp1109
Rp1110
ag4
(F3.9156458999999999
F3.9254636999999999
tp1111
Rp1112
ag4
(F3.9156349000000001
F3.9254410000000002
tp1113
Rp1114
ag4
(F3.9156240000000002
F3.9254183
tp1115
Rp1116
ag4
(F3.9156133
F3.9253958999999998
tp1117
Rp1118
ag4
(F3.9156027
F3.9253735999999999
tp1119
Rp1120
ag4
(F3.9155921
F3.9253513
tp1121
Rp1122
ag4
(F3.9155815
F3.9253288999999998
tp1123
Rp1124
ag4
(F3.9155709000000001
F3.9253065999999999
tp1125
Rp1126
ag4
(F3.9155603000000001
F3.9252842999999999
tp1127
Rp1128
ag4
(F3.9155497000000001
F3.925262
tp1129
Rp1130
ag4
(F3.9155392
F3.9252397000000001
tp1131
Rp1132
ag4
(F3.9155286
F3.9252172999999999
tp1133
Rp1134
ag4
(F3.9155180000000001
F3.925195
tp1135
Rp1136
ag4
(F3.9155069999999998
F3.9251724000000001
tp1137
Rp1138
ag4
(F3.9154960000000001
F3.9251496000000001
tp1139
Rp1140
ag4
(F3.9154851000000002
F3.9251269
tp1141
Rp1142
ag4
(F3.9154741
F3.9251041999999998
tp1143
Rp1144
ag4
(F3.9154631000000002
F3.9250815000000001
tp1145
Rp1146
ag4
(F3.9154521
F3.9250603000000002
tp1147
Rp1148
ag4
(F3.9154409999999999
F3.9250392000000001
tp1149
Rp1150
ag4
(F3.9154300000000002
F3.9250180000000001
tp1151
Rp1152
ag4
(F3.915419
F3.9249969
tp1153
Rp1154
ag4
(F3.9154080000000002
F3.9249757999999999
tp1155
Rp1156
ag4
(F3.9153962
F3.9249546999999998
tp1157
Rp1158
ag4
(F3.9153842999999999
F3.9249337
tp1159
Rp1160
ag4
(F3.9153723999999999
F3.9249125999999999
tp1161
Rp1162
ag4
(F3.9153606000000001
F3.9248916
tp1163
Rp1164
ag4
(F3.9153487
F3.9248704999999999
tp1165
Rp1166
ag4
(F3.9153368999999998
F3.9248493999999998
tp1167
Rp1168
ag4
(F3.9153250000000002
F3.9248284
tp1169
Rp1170
ag4
(F3.9153131999999999
F3.9248072999999999
tp1171
Rp1172
ag4
(F3.9153012999999999
F3.9247861999999998
tp1173
Rp1174
ag4
(F3.9152895000000001
F3.9247652
tp1175
Rp1176
ag4
(F3.9152779999999998
F3.9247445000000001
tp1177
Rp1178
ag4
(F3.9152665
F3.9247238000000002
tp1179
Rp1180
ag4
(F3.9152551
F3.9247030999999999
tp1181
Rp1182
ag4
(F3.9152436000000002
F3.9246824
tp1183
Rp1184
ag4
(F3.9152320999999999
F3.9246618
tp1185
Rp1186
ag4
(F3.9152203000000001
F3.9246406999999999
tp1187
Rp1188
ag4
(F3.9152084
F3.9246196000000002
tp1189
Rp1190
ag4
(F3.9151965999999998
F3.9245985999999999
tp1191
Rp1192
ag4
(F3.9151847000000002
F3.9245774999999998
tp1193
Rp1194
ag4
(F3.9151729
F3.9245564000000002
tp1195
Rp1196
ag4
(F3.9151530999999999
F3.9245212999999999
tp1197
Rp1198
ag4
(F3.9151334000000002
F3.9244862
tp1199
Rp1200
ag4
(F3.9151136000000002
F3.9244511000000002
tp1201
Rp1202
ag4
(F3.9150961999999998
F3.9244175000000001
tp1203
Rp1204
ag4
(F3.9150787
F3.9243839999999999
tp1205
Rp1206
ag4
(F3.9150613999999999
F3.9243503999999998
tp1207
Rp1208
ag4
(F3.9150475999999998
F3.9243182000000001
tp1209
Rp1210
ag4
(F3.9150339000000001
F3.9242859999999999
tp1211
Rp1212
ag4
(F3.9150201999999998
F3.9242539000000001
tp1213
Rp1214
ag4
(F3.9150070000000001
F3.9242222999999998
tp1215
Rp1216
ag4
(F3.9149938999999998
F3.9241907999999999
tp1217
Rp1218
ag4
(F3.9149807999999999
F3.9241592000000001
tp1219
Rp1220
ag4
(F3.9149671000000001
F3.9241269999999999
tp1221
Rp1222
ag4
(F3.9149533000000001
F3.9240948000000002
tp1223
Rp1224
ag4
(F3.9149395999999999
F3.9240626999999999
tp1225
Rp1226
ag4
(F3.9149265
F3.9240311000000001
tp1227
Rp1228
ag4
(F3.9149134000000001
F3.9239996000000001
tp1229
Rp1230
ag4
(F3.9149001999999999
F3.9239679999999999
tp1231
Rp1232
ag4
(F3.9148865000000002
F3.9239358000000002
tp1233
Rp1234
ag4
(F3.9148727000000001
F3.9239036999999999
tp1235
Rp1236
ag4
(F3.9148589999999999
F3.9238715000000002
tp1237
Rp1238
ag4
(F3.9148459
F3.9238400000000002
tp1239
Rp1240
ag4
(F3.9148328000000001
F3.9238084
tp1241
Rp1242
ag4
(F3.9148195000000001
F3.9237768000000002
tp1243
Rp1244
ag4
(F3.9148041
F3.9237437000000002
tp1245
Rp1246
ag4
(F3.9147886999999999
F3.9237106000000002
tp1247
Rp1248
ag4
(F3.9147732999999998
F3.9236776
tp1249
Rp1250
ag4
(F3.9147577
F3.9236445999999998
tp1251
Rp1252
ag4
(F3.9147422000000001
F3.9236116999999999
tp1253
Rp1254
ag4
(F3.9147267000000001
F3.9235787000000002
tp1255
Rp1256
ag4
(F3.9147112000000002
F3.9235457999999999
tp1257
Rp1258
ag4
(F3.9146955999999999
F3.9235128000000001
tp1259
Rp1260
ag4
(F3.9146801
F3.9234798
tp1261
Rp1262
ag4
(F3.9146646
F3.9234469000000001
tp1263
Rp1264
ag4
(F3.9146489999999998
F3.9234138999999999
tp1265
Rp1266
ag4
(F3.9146334999999999
F3.923381
tp1267
Rp1268
ag4
(F3.9146179999999999
F3.9233479999999998
tp1269
Rp1270
ag4
(F3.9146025
F3.9233150999999999
tp1271
Rp1272
ag4
(F3.9145867999999999
F3.9232821000000002
tp1273
Rp1274
ag4
(F3.9145707000000001
F3.9232485000000001
tp1275
Rp1276
ag4
(F3.9145544999999999
F3.9232149000000001
tp1277
Rp1278
ag4
(F3.9145384000000001
F3.9231813999999998
tp1279
Rp1280
ag4
(F3.9145227999999999
F3.9231484999999999
tp1281
Rp1282
ag4
(F3.9145072000000001
F3.9231156
tp1283
Rp1284
ag4
(F3.9144915999999998
F3.9230828999999998
tp1285
Rp1286
ag4
(F3.9144763
F3.9230510999999999
tp1287
Rp1288
ag4
(F3.9144608999999999
F3.9230192000000002
tp1289
Rp1290
ag4
(F3.9144454
F3.9229873
tp1291
Rp1292
ag4
(F3.9144293999999999
F3.9229547999999999
tp1293
Rp1294
ag4
(F3.9144133999999999
F3.9229224
tp1295
Rp1296
ag4
(F3.9143975000000002
F3.9228900000000002
tp1297
Rp1298
ag4
(F3.9143821000000001
F3.9228581999999999
tp1299
Rp1300
ag4
(F3.9143667999999998
F3.9228263000000001
tp1301
Rp1302
ag4
(F3.9143512999999999
F3.9227943999999999
tp1303
Rp1304
ag4
(F3.9143352999999999
F3.9227618999999998
tp1305
Rp1306
ag4
(F3.9143192
F3.9227295
tp1307
Rp1308
ag4
(F3.9143034000000001
F3.9226971000000002
tp1309
Rp1310
ag4
(F3.914288
F3.9226652999999998
tp1311
Rp1312
ag4
(F3.9142725999999999
F3.9226334
tp1313
Rp1314
ag4
(F3.9142570999999999
F3.9226014999999999
tp1315
Rp1316
ag4
(F3.9142410999999999
F3.9225690000000002
tp1317
Rp1318
ag4
(F3.9142250999999999
F3.9225365000000001
tp1319
Rp1320
ag4
(F3.9142093999999998
F3.9225045000000001
tp1321
Rp1322
ag4
(F3.9141951000000001
F3.9224741999999999
tp1323
Rp1324
ag4
(F3.9141808
F3.9224437999999999
tp1325
Rp1326
ag4
(F3.9141666000000002
F3.9224136000000001
tp1327
Rp1328
ag4
(F3.9141526999999998
F3.9223842000000002
tp1329
Rp1330
ag4
(F3.9141387999999999
F3.9223547000000001
tp1331
Rp1332
ag4
(F3.9141249
F3.9223252
tp1333
Rp1334
ag4
(F3.9141110000000001
F3.9222958000000001
tp1335
Rp1336
ag4
(F3.9140971000000002
F3.9222663
tp1337
Rp1338
ag4
(F3.9140831999999999
F3.9222367999999999
tp1339
Rp1340
ag4
(F3.9140693
F3.9222074
tp1341
Rp1342
ag4
(F3.9140552999999998
F3.9221778999999999
tp1343
Rp1344
ag4
(F3.9140413999999999
F3.9221484000000002
tp1345
Rp1346
ag4
(F3.9140275
F3.9221189999999999
tp1347
Rp1348
ag4
(F3.9140136000000001
F3.9220894999999998
tp1349
Rp1350
ag4
(F3.9139997000000002
F3.9220600000000001
tp1351
Rp1352
ag4
(F3.9139857999999998
F3.9220305999999998
tp1353
Rp1354
ag4
(F3.9139718999999999
F3.9220011000000001
tp1355
Rp1356
ag4
(F3.9139580999999999
F3.9219718000000001
tp1357
Rp1358
ag4
(F3.9139449000000002
F3.9219430000000002
tp1359
Rp1360
ag4
(F3.9139316000000002
F3.9219141
tp1361
Rp1362
ag4
(F3.9139181000000001
F3.9218852000000002
tp1363
Rp1364
ag4
(F3.9139039000000002
F3.921856
tp1365
Rp1366
ag4
(F3.9138896999999999
F3.9218267999999998
tp1367
Rp1368
ag4
(F3.9138757000000002
F3.9217979000000001
tp1369
Rp1370
ag4
(F3.913862
F3.9217694999999999
tp1371
Rp1372
ag4
(F3.9138483000000002
F3.9217411000000002
tp1373
Rp1374
ag4
(F3.9138343999999998
F3.9217124999999999
tp1375
Rp1376
ag4
(F3.9138199999999999
F3.9216834
tp1377
Rp1378
ag4
(F3.9138057000000002
F3.9216544
tp1379
Rp1380
ag4
(F3.9137914999999999
F3.9216255000000002
tp1381
Rp1382
ag4
(F3.9137778000000001
F3.9215971000000001
tp1383
Rp1384
ag4
(F3.9137640999999999
F3.9215686999999999
tp1385
Rp1386
ag4
(F3.9137504000000001
F3.9215403000000002
tp1387
Rp1388
ag4
(F3.9137366999999998
F3.9215119000000001
tp1389
Rp1390
ag4
(F3.9137230000000001
F3.9214834999999999
tp1391
Rp1392
ag4
(F3.9137092999999998
F3.9214551000000002
tp1393
Rp1394
ag4
(F3.9136956000000001
F3.9214267
tp1395
Rp1396
ag4
(F3.9136818999999998
F3.9213982999999999
tp1397
Rp1398
ag4
(F3.9136679999999999
F3.9213697000000001
tp1399
Rp1400
ag4
(F3.9136536999999998
F3.9213407
tp1401
Rp1402
ag4
(F3.9136392999999998
F3.9213116000000001
tp1403
Rp1404
ag4
(F3.9136251
F3.9212829
tp1405
Rp1406
ag4
(F3.9136110999999998
F3.9212547999999998
tp1407
Rp1408
ag4
(F3.9135971999999999
F3.9212267000000001
tp1409
Rp1410
ag4
(F3.9135833999999998
F3.9211988
tp1411
Rp1412
ag4
(F3.9135699000000002
F3.9211714999999998
tp1413
Rp1414
ag4
(F3.9135564
F3.9211440999999998
tp1415
Rp1416
ag4
(F3.9135426999999998
F3.9211165000000001
tp1417
Rp1418
ag4
(F3.9135285999999998
F3.9210885000000002
tp1419
Rp1420
ag4
(F3.9135144999999998
F3.9210604999999998
tp1421
Rp1422
ag4
(F3.9135004000000002
F3.9210324999999999
tp1423
Rp1424
ag4
(F3.9134863000000002
F3.9210045
tp1425
Rp1426
ag4
(F3.9134722000000002
F3.9209765000000001
tp1427
Rp1428
ag4
(F3.9134581000000002
F3.9209485000000002
tp1429
Rp1430
ag4
(F3.9134440000000001
F3.9209204999999998
tp1431
Rp1432
ag4
(F3.9134299000000001
F3.9208924999999999
tp1433
Rp1434
ag4
(F3.9134161000000001
F3.9208647999999999
tp1435
Rp1436
ag4
(F3.9134026
F3.9208373999999999
tp1437
Rp1438
ag4
(F3.9133890999999998
F3.9208101000000002
tp1439
Rp1440
ag4
(F3.9133754000000001
F3.9207823999999998
tp1441
Rp1442
ag4
(F3.9133613
F3.9207543999999999
tp1443
Rp1444
ag4
(F3.9133472
F3.9207263999999999
tp1445
Rp1446
ag4
(F3.9133334999999998
F3.9206991000000002
tp1447
Rp1448
ag4
(F3.9133205000000002
F3.9206726000000001
tp1449
Rp1450
ag4
(F3.9133073999999999
F3.9206460999999999
tp1451
Rp1452
ag4
(F3.9132948000000001
F3.9206202999999999
tp1453
Rp1454
ag4
(F3.9132829
F3.9205952000000002
tp1455
Rp1456
ag4
(F3.9132709000000001
F3.9205700999999999
tp1457
Rp1458
ag4
(F3.913259
F3.9205451
tp1459
Rp1460
ag4
(F3.9132471
F3.9205199999999998
tp1461
Rp1462
ag4
(F3.9132351000000001
F3.9204949
tp1463
Rp1464
ag4
(F3.9132229000000001
F3.9204696000000001
tp1465
Rp1466
ag4
(F3.9132102999999998
F3.9204439
tp1467
Rp1468
ag4
(F3.9131977999999998
F3.9204181999999999
tp1469
Rp1470
ag4
(F3.9131855
F3.9203926999999998
tp1471
Rp1472
ag4
(F3.9131735999999999
F3.9203676999999999
tp1473
Rp1474
ag4
(F3.9131616
F3.9203426000000001
tp1475
Rp1476
ag4
(F3.9131497
F3.9203174999999999
tp1477
Rp1478
ag4
(F3.9131377999999999
F3.9202925
tp1479
Rp1480
ag4
(F3.9131258
F3.9202674000000002
tp1481
Rp1482
ag4
(F3.9131136
F3.920242
tp1483
Rp1484
ag4
(F3.9131010000000002
F3.9202162999999999
tp1485
Rp1486
ag4
(F3.9130885000000002
F3.9201906000000002
tp1487
Rp1488
ag4
(F3.9130761000000001
F3.9201652999999999
tp1489
Rp1490
ag4
(F3.9130639999999999
F3.9201404000000002
tp1491
Rp1492
ag4
(F3.9130519000000001
F3.9201155999999999
tp1493
Rp1494
ag4
(F3.9130397000000001
F3.9200908000000001
tp1495
Rp1496
ag4
(F3.9130273999999998
F3.9200661000000001
tp1497
Rp1498
ag4
(F3.9130151
F3.9200412999999998
tp1499
Rp1500
ag4
(F3.9130031000000001
F3.9200170000000001
tp1501
Rp1502
ag4
(F3.9129915
F3.9199929
tp1503
Rp1504
ag4
(F3.9129798
F3.9199687999999999
tp1505
Rp1506
ag4
(F3.9129678999999999
F3.9199443999999999
tp1507
Rp1508
ag4
(F3.9129556000000001
F3.9199196999999999
tp1509
Rp1510
ag4
(F3.9129432999999998
F3.9198949999999999
tp1511
Rp1512
ag4
(F3.9129309999999999
F3.9198702999999999
tp1513
Rp1514
ag4
(F3.9129187000000001
F3.9198455999999999
tp1515
Rp1516
ag4
(F3.9129063999999998
F3.9198208999999999
tp1517
Rp1518
ag4
(F3.9128940999999999
F3.9197962
tp1519
Rp1520
ag4
(F3.9128818000000001
F3.9197715
tp1521
Rp1522
ag4
(F3.9128694999999998
F3.9197468
tp1523
Rp1524
ag4
(F3.9128571999999999
F3.9197221
tp1525
Rp1526
ag4
(F3.9128449000000001
F3.9196973000000002
tp1527
Rp1528
ag4
(F3.9128326000000002
F3.9196726000000002
tp1529
Rp1530
ag4
(F3.9128202999999999
F3.919648
tp1531
Rp1532
ag4
(F3.9128078999999998
F3.9196233999999999
tp1533
Rp1534
ag4
(F3.9127955999999999
F3.9195986999999999
tp1535
Rp1536
ag4
(F3.9127833999999999
F3.9195745999999998
tp1537
Rp1538
ag4
(F3.9127714
F3.9195508999999999
tp1539
Rp1540
ag4
(F3.9127594000000001
F3.9195272000000001
tp1541
Rp1542
ag4
(F3.9127474000000002
F3.9195034
tp1543
Rp1544
ag4
(F3.9127353999999999
F3.9194797000000001
tp1545
Rp1546
ag4
(F3.9127234
F3.9194559999999998
tp1547
Rp1548
ag4
(F3.9127111000000001
F3.9194319000000002
tp1549
Rp1550
ag4
(F3.9126984
F3.9194075000000002
tp1551
Rp1552
ag4
(F3.9126858000000002
F3.9193831000000001
tp1553
Rp1554
ag4
(F3.9126736000000002
F3.9193590999999999
tp1555
Rp1556
ag4
(F3.9126615999999999
F3.9193354
tp1557
Rp1558
ag4
(F3.9126495999999999
F3.9193117000000002
tp1559
Rp1560
ag4
(F3.9126376
F3.9192879
tp1561
Rp1562
ag4
(F3.9126256000000001
F3.9192642000000002
tp1563
Rp1564
ag4
(F3.9126135999999998
F3.9192404999999999
tp1565
Rp1566
ag4
(F3.9126012000000001
F3.9192163999999998
tp1567
Rp1568
ag4
(F3.9125885999999999
F3.9191919999999998
tp1569
Rp1570
ag4
(F3.9125759000000002
F3.9191676000000002
tp1571
Rp1572
ag4
(F3.9125637000000002
F3.9191436999999998
tp1573
Rp1574
ag4
(F3.9125516999999999
F3.9191199000000001
tp1575
Rp1576
ag4
(F3.9125397
F3.9190961999999998
tp1577
Rp1578
ag4
(F3.9125283999999998
F3.9190735000000001
tp1579
Rp1580
ag4
(F3.9125174
F3.9190513
tp1581
Rp1582
ag4
(F3.9125063999999998
F3.9190290999999999
tp1583
Rp1584
ag4
(F3.9124957999999999
F3.9190073999999999
tp1585
Rp1586
ag4
(F3.9124854
F3.9189859
tp1587
Rp1588
ag4
(F3.9124750000000001
F3.9189644000000001
tp1589
Rp1590
ag4
(F3.9124645999999998
F3.9189428999999998
tp1591
Rp1592
ag4
(F3.9124542
F3.9189213999999999
tp1593
Rp1594
ag4
(F3.9124438000000001
F3.9188999
tp1595
Rp1596
ag4
(F3.9124333999999998
F3.9188784000000001
tp1597
Rp1598
ag4
(F3.912423
F3.9188569000000002
tp1599
Rp1600
ag4
(F3.9124126000000001
F3.9188353999999999
tp1601
Rp1602
ag4
(F3.9124021999999998
F3.9188139
tp1603
Rp1604
ag4
(F3.9123918
F3.9187924000000001
tp1605
Rp1606
ag4
(F3.9123814000000001
F3.9187709000000002
tp1607
Rp1608
ag4
(F3.9123706
F3.918749
tp1609
Rp1610
ag4
(F3.9123595
F3.9187268
tp1611
Rp1612
ag4
(F3.9123484999999998
F3.9187047000000002
tp1613
Rp1614
ag4
(F3.9123378999999998
F3.9186830000000001
tp1615
Rp1616
ag4
(F3.9123275
F3.9186614999999998
tp1617
Rp1618
ag4
(F3.9123171000000001
F3.9186399999999999
tp1619
Rp1620
ag4
(F3.9123062000000002
F3.9186182000000001
tp1621
Rp1622
ag4
(F3.9122949999999999
F3.9185960999999998
tp1623
Rp1624
ag4
(F3.9122838999999998
F3.9185740999999998
tp1625
Rp1626
ag4
(F3.9122721
F3.9185517999999999
tp1627
Rp1628
ag4
(F3.9122602
F3.9185292999999999
tp1629
Rp1630
ag4
(F3.9122482000000001
F3.9185067999999998
tp1631
Rp1632
ag4
(F3.9122357000000001
F3.9184839
tp1633
Rp1634
ag4
(F3.9122230999999998
F3.9184608000000001
tp1635
Rp1636
ag4
(F3.9122105
F3.9184377000000001
tp1637
Rp1638
ag4
(F3.9121983999999999
F3.918415
tp1639
Rp1640
ag4
(F3.9121864
F3.9183925999999998
tp1641
Rp1642
ag4
(F3.9121744000000001
F3.9183701000000002
tp1643
Rp1644
ag4
(F3.9121619000000001
F3.9183471000000001
tp1645
Rp1646
ag4
(F3.9121492999999998
F3.9183240000000001
tp1647
Rp1648
ag4
(F3.9121367
F3.9183009000000002
tp1649
Rp1650
ag4
(F3.9121245999999998
F3.9182782999999999
tp1651
Rp1652
ag4
(F3.9121125999999999
F3.9182557999999998
tp1653
Rp1654
ag4
(F3.9121006
F3.9182334000000001
tp1655
Rp1656
ag4
(F3.9120881999999999
F3.9182104
tp1657
Rp1658
ag4
(F3.9120754999999998
F3.9181873
tp1659
Rp1660
ag4
(F3.9120629
F3.9181642000000001
tp1661
Rp1662
ag4
(F3.9120507999999998
F3.9181415999999998
tp1663
Rp1664
ag4
(F3.9120387999999999
F3.9181191000000002
tp1665
Rp1666
ag4
(F3.9120268999999999
F3.9180967
tp1667
Rp1668
ag4
(F3.9120157
F3.9180752999999999
tp1669
Rp1670
ag4
(F3.9120048000000001
F3.9180543999999999
tp1671
Rp1672
ag4
(F3.9119939000000001
F3.9180334000000001
tp1673
Rp1674
ag4
(F3.9119828999999999
F3.9180123999999998
tp1675
Rp1676
ag4
(F3.911972
F3.9179914999999998
tp1677
Rp1678
ag4
(F3.9119609999999998
F3.9179705999999999
tp1679
Rp1680
ag4
(F3.9119505000000001
F3.9179501999999999
tp1681
Rp1682
ag4
(F3.9119400999999998
F3.9179300000000001
tp1683
Rp1684
ag4
(F3.9119297999999998
F3.9179097000000001
tp1685
Rp1686
ag4
(F3.9119193999999999
F3.9178894
tp1687
Rp1688
ag4
(F3.9119090999999999
F3.9178692000000002
tp1689
Rp1690
ag4
(F3.9118987000000001
F3.9178489000000001
tp1691
Rp1692
ag4
(F3.9118879
F3.9178280999999999
tp1693
Rp1694
ag4
(F3.9118769000000002
F3.9178071999999999
tp1695
Rp1696
ag4
(F3.9118659
F3.9177862999999999
tp1697
Rp1698
ag4
(F3.9118553999999999
F3.9177659
tp1699
Rp1700
ag4
(F3.9118450999999999
F3.9177455999999999
tp1701
Rp1702
ag4
(F3.9118347
F3.9177254000000001
tp1703
Rp1704
ag4
(F3.9118244
F3.9177051000000001
tp1705
Rp1706
ag4
(F3.9118140000000001
F3.9176848
tp1707
Rp1708
ag4
(F3.9118037000000001
F3.9176646000000002
tp1709
Rp1710
ag4
(F3.9117928000000002
F3.9176437000000002
tp1711
Rp1712
ag4
(F3.9117818
F3.9176228000000002
tp1713
Rp1714
ag4
(F3.9117708000000002
F3.9176019000000002
tp1715
Rp1716
ag4
(F3.9117617999999998
F3.9175835000000001
tp1717
Rp1718
ag4
(F3.9117530999999999
F3.9175654
tp1719
Rp1720
ag4
(F3.9117443999999999
F3.9175472999999998
tp1721
Rp1722
ag4
(F3.9117356999999999
F3.9175292000000002
tp1723
Rp1724
ag4
(F3.911727
F3.9175111
tp1725
Rp1726
ag4
(F3.9117183
F3.9174929999999999
tp1727
Rp1728
ag4
(F3.9117090000000001
F3.9174744000000001
tp1729
Rp1730
ag4
(F3.9116996999999998
F3.9174555999999998
tp1731
Rp1732
ag4
(F3.9116903000000001
F3.9174369000000002
tp1733
Rp1734
ag4
(F3.9116816000000001
F3.9174188000000001
tp1735
Rp1736
ag4
(F3.9116727999999998
F3.9174007
tp1737
Rp1738
ag4
(F3.9116640999999999
F3.9173825999999998
tp1739
Rp1740
ag4
(F3.9116553999999999
F3.9173645000000001
tp1741
Rp1742
ag4
(F3.9116466999999999
F3.9173464
tp1743
Rp1744
ag4
(F3.9116379999999999
F3.9173284000000002
tp1745
Rp1746
ag4
(F3.9116287000000001
F3.9173097000000001
tp1747
Rp1748
ag4
(F3.9116194000000002
F3.9172910000000001
tp1749
Rp1750
ag4
(F3.91161
F3.9172722000000002
tp1751
Rp1752
ag4
(F3.9116013000000001
F3.9172541000000001
tp1753
Rp1754
ag4
(F3.9115926000000001
F3.9172359999999999
tp1755
Rp1756
ag4
(F3.9115839000000001
F3.9172178999999998
tp1757
Rp1758
ag4
(F3.9115750999999999
F3.9171999
tp1759
Rp1760
ag4
(F3.9115663999999999
F3.9171817999999998
tp1761
Rp1762
ag4
(F3.9115576999999999
F3.9171637000000001
tp1763
Rp1764
ag4
(F3.9115468999999998
F3.9171440999999998
tp1765
Rp1766
ag4
(F3.9115359999999999
F3.9171242999999998
tp1767
Rp1768
ag4
(F3.9115251999999998
F3.9171046
tp1769
Rp1770
ag4
(F3.9115142999999999
F3.9170848999999999
tp1771
Rp1772
ag4
(F3.9115034
F3.9170650999999999
tp1773
Rp1774
ag4
(F3.9114925
F3.9170454000000001
tp1775
Rp1776
ag4
(F3.9114822999999999
F3.9170262
tp1777
Rp1778
ag4
(F3.9114719999999998
F3.9170071000000002
tp1779
Rp1780
ag4
(F3.9114618000000001
F3.9169879999999999
tp1781
Rp1782
ag4
(F3.9114509000000002
F3.9169683000000002
tp1783
Rp1784
ag4
(F3.9114401000000001
F3.9169486
tp1785
Rp1786
ag4
(F3.9114292000000002
F3.9169288
tp1787
Rp1788
ag4
(F3.9114189000000001
F3.9169097000000002
tp1789
Rp1790
ag4
(F3.9114087
F3.9168905999999999
tp1791
Rp1792
ag4
(F3.9113984999999998
F3.9168715000000001
tp1793
Rp1794
asS'fhbar'
p1795
(lp1796
g4
(F3.9448606000000002
F-3.9240178000000001
tp1797
Rp1798
ag4
(F3.9448083999999999
F-3.9239978
tp1799
Rp1800
ag4
(F3.9447562
F-3.9239779000000001
tp1801
Rp1802
ag4
(F3.9447040000000002
F-3.9239579
tp1803
Rp1804
ag4
(F3.9446517999999999
F-3.9239378999999999
tp1805
Rp1806
ag4
(F3.9445996000000001
F-3.923918
tp1807
Rp1808
ag4
(F3.9445473999999998
F-3.9238979999999999
tp1809
Rp1810
ag4
(F3.9444952
F-3.9238780000000002
tp1811
Rp1812
ag4
(F3.9444430000000001
F-3.9238580000000001
tp1813
Rp1814
ag4
(F3.944391
F-3.9238379000000001
tp1815
Rp1816
ag4
(F3.9443389
F-3.9238178000000001
tp1817
Rp1818
ag4
(F3.9442868999999998
F-3.9237977000000002
tp1819
Rp1820
ag4
(F3.9442347999999998
F-3.9237776000000002
tp1821
Rp1822
ag4
(F3.9441828000000001
F-3.9237574999999998
tp1823
Rp1824
ag4
(F3.9441321
F-3.9237373999999998
tp1825
Rp1826
ag4
(F3.9440814
F-3.9237174000000001
tp1827
Rp1828
ag4
(F3.9440308000000002
F-3.9236973000000002
tp1829
Rp1830
ag4
(F3.9439801000000001
F-3.9236772000000002
tp1831
Rp1832
ag4
(F3.9439294
F-3.9236572000000001
tp1833
Rp1834
ag4
(F3.9438784999999998
F-3.9236369
tp1835
Rp1836
ag4
(F3.9438274999999998
F-3.9236163999999998
tp1837
Rp1838
ag4
(F3.9437764999999998
F-3.9235959999999999
tp1839
Rp1840
ag4
(F3.9437255000000002
F-3.9235755999999999
tp1841
Rp1842
ag4
(F3.9436745000000002
F-3.9235552
tp1843
Rp1844
ag4
(F3.9436236
F-3.9235348000000001
tp1845
Rp1846
ag4
(F3.9435728999999999
F-3.9235148
tp1847
Rp1848
ag4
(F3.9435221999999999
F-3.9234947
tp1849
Rp1850
ag4
(F3.9434716000000001
F-3.9234746
tp1851
Rp1852
ag4
(F3.9434209
F-3.9234545999999999
tp1853
Rp1854
ag4
(F3.9433701999999999
F-3.9234344999999999
tp1855
Rp1856
ag4
(F3.9433191999999999
F-3.9234141
tp1857
Rp1858
ag4
(F3.9432681999999999
F-3.9233937000000001
tp1859
Rp1860
ag4
(F3.9432171999999999
F-3.9233731999999999
tp1861
Rp1862
ag4
(F3.9431661999999998
F-3.9233528
tp1863
Rp1864
ag4
(F3.9431151999999998
F-3.9233324000000001
tp1865
Rp1866
ag4
(F3.9430649
F-3.9233121
tp1867
Rp1868
ag4
(F3.9430149999999999
F-3.923292
tp1869
Rp1870
ag4
(F3.9429650999999999
F-3.9232718000000002
tp1871
Rp1872
ag4
(F3.9429151999999998
F-3.9232516999999998
tp1873
Rp1874
ag4
(F3.9428652999999998
F-3.9232315999999998
tp1875
Rp1876
ag4
(F3.9428155999999999
F-3.9232113000000002
tp1877
Rp1878
ag4
(F3.9427661000000001
F-3.9231908
tp1879
Rp1880
ag4
(F3.9427165999999998
F-3.9231703000000002
tp1881
Rp1882
ag4
(F3.9426671
F-3.9231498
tp1883
Rp1884
ag4
(F3.9426174999999999
F-3.9231292999999998
tp1885
Rp1886
ag4
(F3.9425680000000001
F-3.9231088000000001
tp1887
Rp1888
ag4
(F3.9425184999999998
F-3.9230882999999999
tp1889
Rp1890
ag4
(F3.942469
F-3.9230678000000001
tp1891
Rp1892
ag4
(F3.9424195000000002
F-3.9230472000000001
tp1893
Rp1894
ag4
(F3.9423699999999999
F-3.9230266999999999
tp1895
Rp1896
ag4
(F3.9423205000000001
F-3.9230062000000001
tp1897
Rp1898
ag4
(F3.9422709999999999
F-3.9229856999999999
tp1899
Rp1900
ag4
(F3.9422215
F-3.9229652000000002
tp1901
Rp1902
ag4
(F3.9421719999999998
F-3.9229447
tp1903
Rp1904
ag4
(F3.9421225
F-3.9229242000000002
tp1905
Rp1906
ag4
(F3.9420730000000002
F-3.9229037
tp1907
Rp1908
ag4
(F3.9420234999999999
F-3.9228831999999998
tp1909
Rp1910
ag4
(F3.9419740000000001
F-3.9228627
tp1911
Rp1912
ag4
(F3.9419244
F-3.9228421
tp1913
Rp1914
ag4
(F3.9418749000000002
F-3.9228215999999998
tp1915
Rp1916
ag4
(F3.9418253999999999
F-3.9228011
tp1917
Rp1918
ag4
(F3.9417759000000001
F-3.9227805999999998
tp1919
Rp1920
ag4
(F3.9417285999999998
F-3.9227612000000001
tp1921
Rp1922
ag4
(F3.9416815000000001
F-3.9227419000000001
tp1923
Rp1924
ag4
(F3.9416343999999999
F-3.9227224999999999
tp1925
Rp1926
ag4
(F3.9415873000000001
F-3.9227031999999999
tp1927
Rp1928
ag4
(F3.9415401999999999
F-3.9226839
tp1929
Rp1930
ag4
(F3.9414934000000001
F-3.9226646999999999
tp1931
Rp1932
ag4
(F3.9414468
F-3.9226456000000001
tp1933
Rp1934
ag4
(F3.9414001000000001
F-3.9226264
tp1935
Rp1936
ag4
(F3.9413535
F-3.9226073000000001
tp1937
Rp1938
ag4
(F3.9413068999999998
F-3.9225881999999999
tp1939
Rp1940
ag4
(F3.9412603000000002
F-3.9225691
tp1941
Rp1942
ag4
(F3.9412136000000002
F-3.9225500000000002
tp1943
Rp1944
ag4
(F3.9411670000000001
F-3.9225308999999999
tp1945
Rp1946
ag4
(F3.9411204
F-3.9225118000000001
tp1947
Rp1948
ag4
(F3.9410737999999998
F-3.9224926999999998
tp1949
Rp1950
ag4
(F3.9410272000000002
F-3.9224736
tp1951
Rp1952
ag4
(F3.9409805000000002
F-3.9224545000000002
tp1953
Rp1954
ag4
(F3.9409339000000001
F-3.9224353999999999
tp1955
Rp1956
ag4
(F3.9408873
F-3.9224163000000001
tp1957
Rp1958
ag4
(F3.9408406999999999
F-3.9223971999999998
tp1959
Rp1960
ag4
(F3.9407939999999999
F-3.9223780000000001
tp1961
Rp1962
ag4
(F3.9407475999999999
F-3.9223591
tp1963
Rp1964
ag4
(F3.9407014
F-3.9223403999999999
tp1965
Rp1966
ag4
(F3.9406552000000001
F-3.9223216000000001
tp1967
Rp1968
ag4
(F3.9406089
F-3.9223028000000002
tp1969
Rp1970
ag4
(F3.9405627000000001
F-3.9222839999999999
tp1971
Rp1972
ag4
(F3.9405169
F-3.9222654000000001
tp1973
Rp1974
ag4
(F3.9404728000000002
F-3.9222473999999998
tp1975
Rp1976
ag4
(F3.9404287
F-3.9222294
tp1977
Rp1978
ag4
(F3.9403845
F-3.9222112999999998
tp1979
Rp1980
ag4
(F3.9403404000000002
F-3.9221933
tp1981
Rp1982
ag4
(F3.9402963
F-3.9221753000000001
tp1983
Rp1984
ag4
(F3.9402525000000002
F-3.9221575
tp1985
Rp1986
ag4
(F3.9402086999999999
F-3.9221398999999999
tp1987
Rp1988
ag4
(F3.9401649999999999
F-3.9221222
tp1989
Rp1990
ag4
(F3.9401212000000001
F-3.9221045000000001
tp1991
Rp1992
ag4
(F3.9400773999999998
F-3.9220868000000002
tp1993
Rp1994
ag4
(F3.9400336999999999
F-3.9220692000000001
tp1995
Rp1996
ag4
(F3.9399899
F-3.9220514999999998
tp1997
Rp1998
ag4
(F3.9399460999999998
F-3.9220337999999999
tp1999
Rp2000
ag4
(F3.9399023999999998
F-3.9220161
tp2001
Rp2002
ag4
(F3.9398586
F-3.9219984000000001
tp2003
Rp2004
ag4
(F3.9398148000000002
F-3.9219808
tp2005
Rp2006
ag4
(F3.9397711000000002
F-3.9219631000000001
tp2007
Rp2008
ag4
(F3.9397272999999999
F-3.9219453999999998
tp2009
Rp2010
ag4
(F3.9396835000000001
F-3.9219276999999999
tp2011
Rp2012
ag4
(F3.9396398000000001
F-3.9219100999999998
tp2013
Rp2014
ag4
(F3.9395959999999999
F-3.9218923999999999
tp2015
Rp2016
ag4
(F3.9395522999999999
F-3.9218746000000002
tp2017
Rp2018
ag4
(F3.9395087000000002
F-3.9218568
tp2019
Rp2020
ag4
(F3.9394650000000002
F-3.9218389999999999
tp2021
Rp2022
ag4
(F3.9394214000000001
F-3.9218212000000001
tp2023
Rp2024
ag4
(F3.9393777000000001
F-3.9218035000000002
tp2025
Rp2026
ag4
(F3.9393346
F-3.9217856000000002
tp2027
Rp2028
ag4
(F3.9392917999999999
F-3.9217675999999999
tp2029
Rp2030
ag4
(F3.9392491000000001
F-3.9217496000000001
tp2031
Rp2032
ag4
(F3.9392064000000002
F-3.9217316000000002
tp2033
Rp2034
ag4
(F3.9391636000000001
F-3.9217135999999999
tp2035
Rp2036
ag4
(F3.9391208999999998
F-3.9216956000000001
tp2037
Rp2038
ag4
(F3.9390781000000001
F-3.9216776000000002
tp2039
Rp2040
ag4
(F3.9390353999999999
F-3.9216595999999999
tp2041
Rp2042
ag4
(F3.9389927
F-3.9216416000000001
tp2043
Rp2044
ag4
(F3.9389498999999999
F-3.9216236000000002
tp2045
Rp2046
ag4
(F3.9389072000000001
F-3.9216055999999999
tp2047
Rp2048
ag4
(F3.9388648000000002
F-3.9215879
tp2049
Rp2050
ag4
(F3.9388223999999998
F-3.9215703
tp2051
Rp2052
ag4
(F3.9387799999999999
F-3.9215526999999999
tp2053
Rp2054
ag4
(F3.9387376000000001
F-3.921535
tp2055
Rp2056
ag4
(F3.9386953
F-3.9215173999999999
tp2057
Rp2058
ag4
(F3.9386527
F-3.9214996000000002
tp2059
Rp2060
ag4
(F3.9386100000000002
F-3.9214815999999999
tp2061
Rp2062
ag4
(F3.9385672
F-3.9214636
tp2063
Rp2064
ag4
(F3.9385245000000002
F-3.9214456000000002
tp2065
Rp2066
ag4
(F3.9384817999999999
F-3.9214275999999999
tp2067
Rp2068
ag4
(F3.9384391000000001
F-3.9214096000000001
tp2069
Rp2070
ag4
(F3.9383968999999999
F-3.9213917999999999
tp2071
Rp2072
ag4
(F3.9383545999999998
F-3.9213741
tp2073
Rp2074
ag4
(F3.9383124
F-3.9213562999999998
tp2075
Rp2076
ag4
(F3.9382701999999998
F-3.9213385000000001
tp2077
Rp2078
ag4
(F3.9382278999999998
F-3.9213206999999999
tp2079
Rp2080
ag4
(F3.9381876
F-3.9213040000000001
tp2081
Rp2082
ag4
(F3.9381477
F-3.9212875
tp2083
Rp2084
ag4
(F3.9381077000000002
F-3.9212710999999998
tp2085
Rp2086
ag4
(F3.9380677999999998
F-3.9212546000000001
tp2087
Rp2088
ag4
(F3.9380278
F-3.9212381000000001
tp2089
Rp2090
ag4
(F3.9379879
F-3.9212216
tp2091
Rp2092
ag4
(F3.9379479000000002
F-3.9212050999999999
tp2093
Rp2094
ag4
(F3.9379080000000002
F-3.9211885999999998
tp2095
Rp2096
ag4
(F3.9378679999999999
F-3.9211721000000002
tp2097
Rp2098
ag4
(F3.9378280999999999
F-3.9211556000000001
tp2099
Rp2100
ag4
(F3.9377881000000001
F-3.9211391
tp2101
Rp2102
ag4
(F3.9377477999999999
F-3.9211222000000001
tp2103
Rp2104
ag4
(F3.9377075000000001
F-3.9211054000000001
tp2105
Rp2106
ag4
(F3.9376671000000001
F-3.9210885000000002
tp2107
Rp2108
ag4
(F3.9376267999999999
F-3.9210717000000002
tp2109
Rp2110
ag4
(F3.9375865000000001
F-3.9210547999999998
tp2111
Rp2112
ag4
(F3.9375464999999998
F-3.9210381999999999
tp2113
Rp2114
ag4
(F3.9375065999999999
F-3.9210218000000001
tp2115
Rp2116
ag4
(F3.9374666
F-3.9210053
tp2117
Rp2118
ag4
(F3.9374267000000001
F-3.9209887999999999
tp2119
Rp2120
ag4
(F3.9373866999999998
F-3.9209722999999999
tp2121
Rp2122
ag4
(F3.9373467999999998
F-3.9209556999999999
tp2123
Rp2124
ag4
(F3.9373070000000001
F-3.9209391
tp2125
Rp2126
ag4
(F3.9372672
F-3.9209225000000001
tp2127
Rp2128
ag4
(F3.9372273
F-3.9209059000000002
tp2129
Rp2130
ag4
(F3.9371874999999998
F-3.9208892999999998
tp2131
Rp2132
ag4
(F3.9371478
F-3.9208726
tp2133
Rp2134
ag4
(F3.9371087999999999
F-3.9208558999999998
tp2135
Rp2136
ag4
(F3.9370698000000002
F-3.9208390999999998
tp2137
Rp2138
ag4
(F3.9370308999999999
F-3.9208224
tp2139
Rp2140
ag4
(F3.9369919000000002
F-3.9208056
tp2141
Rp2142
ag4
(F3.9369529000000001
F-3.9207888999999998
tp2143
Rp2144
ag4
(F3.9369139
F-3.9207721000000002
tp2145
Rp2146
ag4
(F3.9368750000000001
F-3.9207554
tp2147
Rp2148
ag4
(F3.936836
F-3.9207386
tp2149
Rp2150
ag4
(F3.9367969999999999
F-3.9207219000000002
tp2151
Rp2152
ag4
(F3.9367580000000002
F-3.9207051000000002
tp2153
Rp2154
ag4
(F3.9367190000000001
F-3.9206884
tp2155
Rp2156
ag4
(F3.9366800999999998
F-3.9206715999999999
tp2157
Rp2158
ag4
(F3.9366411000000001
F-3.9206549000000002
tp2159
Rp2160
ag4
(F3.9366021
F-3.9206382
tp2161
Rp2162
ag4
(F3.9365630999999999
F-3.9206213999999999
tp2163
Rp2164
ag4
(F3.9365242
F-3.9206047000000002
tp2165
Rp2166
ag4
(F3.9364851999999999
F-3.9205879000000001
tp2167
Rp2168
ag4
(F3.9364461999999998
F-3.9205711999999999
tp2169
Rp2170
ag4
(F3.9364072000000001
F-3.9205543999999999
tp2171
Rp2172
ag4
(F3.9363682
F-3.9205377000000001
tp2173
Rp2174
ag4
(F3.9363293000000001
F-3.9205209000000001
tp2175
Rp2176
ag4
(F3.9362903
F-3.9205041
tp2177
Rp2178
ag4
(F3.9362514000000002
F-3.9204873
tp2179
Rp2180
ag4
(F3.9362124999999999
F-3.9204705
tp2181
Rp2182
ag4
(F3.9361735000000002
F-3.9204536999999999
tp2183
Rp2184
ag4
(F3.9361345999999999
F-3.9204368999999999
tp2185
Rp2186
ag4
(F3.9360968999999999
F-3.9204208
tp2187
Rp2188
ag4
(F3.9360605999999998
F-3.9204056999999999
tp2189
Rp2190
ag4
(F3.9360244
F-3.9203904999999999
tp2191
Rp2192
ag4
(F3.9359880999999999
F-3.9203752999999999
tp2193
Rp2194
ag4
(F3.9359519000000001
F-3.9203600999999999
tp2195
Rp2196
ag4
(F3.9359156
F-3.9203448999999999
tp2197
Rp2198
ag4
(F3.9358789999999999
F-3.9203293000000001
tp2199
Rp2200
ag4
(F3.9358423999999999
F-3.9203138000000002
tp2201
Rp2202
ag4
(F3.9358057
F-3.9202982
tp2203
Rp2204
ag4
(F3.9357690999999999
F-3.9202827
tp2205
Rp2206
ag4
(F3.9357324999999999
F-3.9202670999999998
tp2207
Rp2208
ag4
(F3.9356958999999998
F-3.9202515999999998
tp2209
Rp2210
ag4
(F3.9356593000000002
F-3.9202360000000001
tp2211
Rp2212
ag4
(F3.9356227000000001
F-3.9202205000000001
tp2213
Rp2214
ag4
(F3.9355861000000001
F-3.9202048999999999
tp2215
Rp2216
ag4
(F3.9355495
F-3.9201893999999999
tp2217
Rp2218
ag4
(F3.9355129999999998
F-3.9201739999999998
tp2219
Rp2220
ag4
(F3.9354768
F-3.9201587999999998
tp2221
Rp2222
ag4
(F3.9354404999999999
F-3.9201435999999998
tp2223
Rp2224
ag4
(F3.9354043000000001
F-3.9201283999999998
tp2225
Rp2226
ag4
(F3.935368
F-3.9201133000000001
tp2227
Rp2228
ag4
(F3.9353316999999999
F-3.9200979999999999
tp2229
Rp2230
ag4
(F3.9352950999999998
F-3.9200824999999999
tp2231
Rp2232
ag4
(F3.9352585000000002
F-3.9200669000000001
tp2233
Rp2234
ag4
(F3.9352219000000002
F-3.9200514000000002
tp2235
Rp2236
ag4
(F3.9351853000000001
F-3.9200358999999998
tp2237
Rp2238
ag4
(F3.9351487000000001
F-3.9200203
tp2239
Rp2240
ag4
(F3.9351126999999999
F-3.9200046999999998
tp2241
Rp2242
ag4
(F3.9350768999999999
F-3.9199890000000002
tp2243
Rp2244
ag4
(F3.9350412000000001
F-3.9199733000000001
tp2245
Rp2246
ag4
(F3.9350054000000001
F-3.9199576
tp2247
Rp2248
ag4
(F3.9349696000000001
F-3.9199419999999998
tp2249
Rp2250
ag4
(F3.9349341
F-3.9199264
tp2251
Rp2252
ag4
(F3.9348987000000002
F-3.9199109999999999
tp2253
Rp2254
ag4
(F3.9348633999999998
F-3.9198955999999998
tp2255
Rp2256
ag4
(F3.934828
F-3.9198803
tp2257
Rp2258
ag4
(F3.9347927
F-3.9198648999999999
tp2259
Rp2260
ag4
(F3.9347572999999998
F-3.9198495000000002
tp2261
Rp2262
ag4
(F3.9347216
F-3.9198336999999999
tp2263
Rp2264
ag4
(F3.9346858999999998
F-3.9198179999999998
tp2265
Rp2266
ag4
(F3.9346502000000001
F-3.9198023000000002
tp2267
Rp2268
ag4
(F3.9346144999999999
F-3.9197864999999998
tp2269
Rp2270
ag4
(F3.9345788000000002
F-3.9197708000000002
tp2271
Rp2272
ag4
(F3.9345433000000001
F-3.9197552999999998
tp2273
Rp2274
ag4
(F3.9345080000000001
F-3.9197399000000002
tp2275
Rp2276
ag4
(F3.9344725999999999
F-3.9197245999999999
tp2277
Rp2278
ag4
(F3.9344372999999999
F-3.9197091999999998
tp2279
Rp2280
ag4
(F3.9344019000000001
F-3.9196938000000001
tp2281
Rp2282
ag4
(F3.9343664
F-3.9196783000000002
tp2283
Rp2284
ag4
(F3.9343306999999998
F-3.9196626000000001
tp2285
Rp2286
ag4
(F3.9342950000000001
F-3.9196468000000002
tp2287
Rp2288
ag4
(F3.9342592999999999
F-3.9196311000000001
tp2289
Rp2290
ag4
(F3.9342236000000002
F-3.9196152999999998
tp2291
Rp2292
ag4
(F3.9341879999999998
F-3.9195997
tp2293
Rp2294
ag4
(F3.9341541000000002
F-3.9195850000000001
tp2295
Rp2296
ag4
(F3.9341200999999999
F-3.9195704
tp2297
Rp2298
ag4
(F3.9340861
F-3.9195557999999999
tp2299
Rp2300
ag4
(F3.9340522
F-3.9195411
tp2301
Rp2302
ag4
(F3.9340182000000001
F-3.9195264999999999
tp2303
Rp2304
ag4
(F3.9339846999999999
F-3.9195120000000001
tp2305
Rp2306
ag4
(F3.9339512999999999
F-3.9194974999999999
tp2307
Rp2308
ag4
(F3.9339179
F-3.9194830999999999
tp2309
Rp2310
ag4
(F3.9338845
F-3.9194686000000001
tp2311
Rp2312
ag4
(F3.9338511
F-3.9194540999999998
tp2313
Rp2314
ag4
(F3.9338177000000001
F-3.9194396
tp2315
Rp2316
ag4
(F3.9337843000000001
F-3.9194252000000001
tp2317
Rp2318
ag4
(F3.9337509000000002
F-3.9194106999999998
tp2319
Rp2320
ag4
(F3.9337175000000002
F-3.9193962
tp2321
Rp2322
ag4
(F3.9336840999999998
F-3.9193817000000002
tp2323
Rp2324
ag4
(F3.9336506999999998
F-3.9193673000000002
tp2325
Rp2326
ag4
(F3.9336177000000001
F-3.9193532000000002
tp2327
Rp2328
ag4
(F3.9335846999999999
F-3.9193389999999999
tp2329
Rp2330
ag4
(F3.9335515999999999
F-3.9193248999999999
tp2331
Rp2332
ag4
(F3.9335186000000002
F-3.9193107999999999
tp2333
Rp2334
ag4
(F3.9334856
F-3.9192966999999999
tp2335
Rp2336
ag4
(F3.9334522999999999
F-3.9192822999999999
tp2337
Rp2338
ag4
(F3.9334188999999999
F-3.9192678999999999
tp2339
Rp2340
ag4
(F3.9333855
F-3.9192534000000001
tp2341
Rp2342
ag4
(F3.9333521
F-3.9192388999999999
tp2343
Rp2344
ag4
(F3.9333187000000001
F-3.9192244000000001
tp2345
Rp2346
ag4
(F3.9332855000000002
F-3.9192100000000001
tp2347
Rp2348
ag4
(F3.9332525999999999
F-3.9191957999999998
tp2349
Rp2350
ag4
(F3.9332196000000001
F-3.9191815999999999
tp2351
Rp2352
ag4
(F3.9331866999999998
F-3.9191672999999998
tp2353
Rp2354
ag4
(F3.9331537999999999
F-3.9191530999999999
tp2355
Rp2356
ag4
(F3.9331209
F-3.9191387999999998
tp2357
Rp2358
ag4
(F3.9330888000000002
F-3.9191246
tp2359
Rp2360
ag4
(F3.9330566
F-3.9191102999999998
tp2361
Rp2362
ag4
(F3.9330243999999999
F-3.9190961
tp2363
Rp2364
ag4
(F3.9329922000000002
F-3.9190817999999998
tp2365
Rp2366
ag4
(F3.93296
F-3.9190675000000001
tp2367
Rp2368
ag4
(F3.9329276000000002
F-3.9190529999999999
tp2369
Rp2370
ag4
(F3.9328951000000001
F-3.9190383999999998
tp2371
Rp2372
ag4
(F3.9328625000000001
F-3.9190238000000002
tp2373
Rp2374
ag4
(F3.93283
F-3.9190092000000001
tp2375
Rp2376
ag4
(F3.9327974000000001
F-3.9189946
tp2377
Rp2378
ag4
(F3.9327649999999998
F-3.9189801000000002
tp2379
Rp2380
ag4
(F3.9327328000000001
F-3.9189658000000001
tp2381
Rp2382
ag4
(F3.9327006999999998
F-3.9189516000000002
tp2383
Rp2384
ag4
(F3.9326685000000001
F-3.9189373000000001
tp2385
Rp2386
ag4
(F3.9326363
F-3.9189231000000002
tp2387
Rp2388
ag4
(F3.9326040999999998
F-3.9189088000000001
tp2389
Rp2390
ag4
(F3.9325692000000001
F-3.9188931
tp2391
Rp2392
ag4
(F3.9325344000000002
F-3.9188774999999998
tp2393
Rp2394
ag4
(F3.9324995
F-3.9188618000000002
tp2395
Rp2396
ag4
(F3.9324647000000001
F-3.9188461999999999
tp2397
Rp2398
ag4
(F3.9324298
F-3.9188304999999999
tp2399
Rp2400
ag4
(F3.9323953
F-3.9188152000000001
tp2401
Rp2402
ag4
(F3.9323608000000001
F-3.9188000000000001
tp2403
Rp2404
ag4
(F3.9323264
F-3.9187846999999998
tp2405
Rp2406
ag4
(F3.9322919000000001
F-3.9187694
tp2407
Rp2408
ag4
(F3.9322574000000001
F-3.9187541000000001
tp2409
Rp2410
ag4
(F3.9322244999999998
F-3.9187395999999999
tp2411
Rp2412
ag4
(F3.9321915999999999
F-3.9187251000000001
tp2413
Rp2414
ag4
(F3.9321587
F-3.9187105
tp2415
Rp2416
ag4
(F3.9321258000000001
F-3.9186960000000002
tp2417
Rp2418
ag4
(F3.9320928999999998
F-3.9186814999999999
tp2419
Rp2420
ag4
(F3.9320607999999999
F-3.9186676
tp2421
Rp2422
ag4
(F3.9320287
F-3.9186538
tp2423
Rp2424
ag4
(F3.9319967
F-3.9186399000000001
tp2425
Rp2426
ag4
(F3.9319646000000001
F-3.9186260000000002
tp2427
Rp2428
ag4
(F3.9319324999999998
F-3.9186120999999998
tp2429
Rp2430
ag4
(F3.9319001
F-3.9185979
tp2431
Rp2432
ag4
(F3.9318675999999999
F-3.9185835999999998
tp2433
Rp2434
ag4
(F3.9318352000000001
F-3.9185694
tp2435
Rp2436
ag4
(F3.9318027
F-3.9185550999999998
tp2437
Rp2438
ag4
(F3.9317703000000002
F-3.9185409
tp2439
Rp2440
ag4
(F3.9317378999999999
F-3.9185265999999999
tp2441
Rp2442
ag4
(F3.9317053999999998
F-3.9185124
tp2443
Rp2444
ag4
(F3.931673
F-3.9184982000000002
tp2445
Rp2446
ag4
(F3.9316404999999999
F-3.9184839
tp2447
Rp2448
ag4
(F3.9316081000000001
F-3.9184697000000002
tp2449
Rp2450
ag4
(F3.9315760000000002
F-3.9184557999999998
tp2451
Rp2452
ag4
(F3.9315440000000001
F-3.9184420000000002
tp2453
Rp2454
ag4
(F3.9315118999999998
F-3.9184280999999999
tp2455
Rp2456
ag4
(F3.9314798999999998
F-3.9184142
tp2457
Rp2458
ag4
(F3.9314477999999999
F-3.9184003000000001
tp2459
Rp2460
ag4
(F3.9314155
F-3.9183859000000001
tp2461
Rp2462
ag4
(F3.9313831000000001
F-3.9183715000000001
tp2463
Rp2464
ag4
(F3.9313508000000001
F-3.9183571000000001
tp2465
Rp2466
ag4
(F3.9313185000000002
F-3.9183428
tp2467
Rp2468
ag4
(F3.9312863999999998
F-3.9183284
tp2469
Rp2470
ag4
(F3.9312551999999998
F-3.9183145000000001
tp2471
Rp2472
ag4
(F3.9312239999999998
F-3.9183005
tp2473
Rp2474
ag4
(F3.9311927999999998
F-3.9182864999999998
tp2475
Rp2476
ag4
(F3.9311615999999998
F-3.9182725999999999
tp2477
Rp2478
ag4
(F3.9311303
F-3.9182584999999999
tp2479
Rp2480
ag4
(F3.9310988
F-3.9182442000000002
tp2481
Rp2482
ag4
(F3.9310672000000002
F-3.9182298000000002
tp2483
Rp2484
ag4
(F3.9310356
F-3.9182155000000001
tp2485
Rp2486
ag4
(F3.9310040000000002
F-3.9182011000000001
tp2487
Rp2488
ag4
(F3.9309725000000002
F-3.9181868
tp2489
Rp2490
ag4
(F3.9309413000000002
F-3.9181729000000001
tp2491
Rp2492
ag4
(F3.9309101000000002
F-3.9181588999999999
tp2493
Rp2494
ag4
(F3.9308789000000002
F-3.9181449000000002
tp2495
Rp2496
ag4
(F3.9308477000000002
F-3.9181309
tp2497
Rp2498
ag4
(F3.9308165000000002
F-3.9181168999999998
tp2499
Rp2500
ag4
(F3.9307848999999999
F-3.9181026000000001
tp2501
Rp2502
ag4
(F3.9307533000000001
F-3.9180882000000001
tp2503
Rp2504
ag4
(F3.9307216999999999
F-3.9180738000000002
tp2505
Rp2506
ag4
(F3.9306901999999999
F-3.9180595
tp2507
Rp2508
ag4
(F3.9306586000000001
F-3.9180451000000001
tp2509
Rp2510
ag4
(F3.9306269999999999
F-3.9180307999999999
tp2511
Rp2512
ag4
(F3.9305954000000001
F-3.9180164
tp2513
Rp2514
ag4
(F3.9305639000000001
F-3.9180020999999998
tp2515
Rp2516
ag4
(F3.9305322999999999
F-3.9179876999999999
tp2517
Rp2518
ag4
(F3.9305010999999999
F-3.9179735999999998
tp2519
Rp2520
ag4
(F3.9304714000000001
F-3.9179605
tp2521
Rp2522
ag4
(F3.9304416
F-3.9179474000000001
tp2523
Rp2524
ag4
(F3.9304119000000002
F-3.9179343000000002
tp2525
Rp2526
ag4
(F3.9303821000000001
F-3.9179211999999999
tp2527
Rp2528
ag4
(F3.9303525000000001
F-3.9179081
tp2529
Rp2530
ag4
(F3.9303233
F-3.9178951999999998
tp2531
Rp2532
ag4
(F3.930294
F-3.9178823
tp2533
Rp2534
ag4
(F3.9302647999999998
F-3.9178693999999998
tp2535
Rp2536
ag4
(F3.9302356000000001
F-3.9178565999999999
tp2537
Rp2538
ag4
(F3.9302063
F-3.9178435999999999
tp2539
Rp2540
ag4
(F3.9301767000000001
F-3.9178302999999999
tp2541
Rp2542
ag4
(F3.9301471000000001
F-3.9178169999999999
tp2543
Rp2544
ag4
(F3.9301175000000002
F-3.9178038000000002
tp2545
Rp2546
ag4
(F3.9300879000000002
F-3.9177905000000002
tp2547
Rp2548
ag4
(F3.9300584000000001
F-3.9177773
tp2549
Rp2550
ag4
(F3.9300291999999999
F-3.9177643999999998
tp2551
Rp2552
ag4
(F3.9300000000000002
F-3.9177515000000001
tp2553
Rp2554
ag4
(F3.9299708
F-3.9177385999999998
tp2555
Rp2556
ag4
(F3.9299415999999998
F-3.9177257999999999
tp2557
Rp2558
ag4
(F3.9299124000000001
F-3.9177129000000002
tp2559
Rp2560
ag4
(F3.9298831999999999
F-3.9177
tp2561
Rp2562
ag4
(F3.9298540000000002
F-3.9176871000000002
tp2563
Rp2564
ag4
(F3.9298247000000002
F-3.9176742
tp2565
Rp2566
ag4
(F3.9297955
F-3.9176612999999998
tp2567
Rp2568
ag4
(F3.9297662999999998
F-3.9176484
tp2569
Rp2570
ag4
(F3.9297371000000001
F-3.9176354999999998
tp2571
Rp2572
ag4
(F3.9297078999999999
F-3.9176226000000001
tp2573
Rp2574
ag4
(F3.9296787000000002
F-3.9176098000000001
tp2575
Rp2576
ag4
(F3.9296495
F-3.9175968999999999
tp2577
Rp2578
ag4
(F3.9296205
F-3.9175840000000002
tp2579
Rp2580
ag4
(F3.9295920999999998
F-3.9175710000000001
tp2581
Rp2582
ag4
(F3.9295637000000001
F-3.9175580999999999
tp2583
Rp2584
ag4
(F3.9295352000000001
F-3.9175452000000002
tp2585
Rp2586
ag4
(F3.9295068
F-3.9175323
tp2587
Rp2588
ag4
(F3.9294783999999998
F-3.9175194000000002
tp2589
Rp2590
ag4
(F3.9294500000000001
F-3.9175064000000002
tp2591
Rp2592
ag4
(F3.9294216
F-3.9174935
tp2593
Rp2594
ag4
(F3.9293931999999998
F-3.9174804999999999
tp2595
Rp2596
ag4
(F3.9293648000000001
F-3.9174676000000002
tp2597
Rp2598
ag4
(F3.9293364999999998
F-3.9174547
tp2599
Rp2600
ag4
(F3.9293081000000001
F-3.9174416999999999
tp2601
Rp2602
ag4
(F3.9292796999999999
F-3.9174288000000002
tp2603
Rp2604
ag4
(F3.9292512999999998
F-3.9174158000000001
tp2605
Rp2606
ag4
(F3.9292229000000001
F-3.9174028999999999
tp2607
Rp2608
ag4
(F3.9291944999999999
F-3.9173898999999999
tp2609
Rp2610
ag4
(F3.9291661000000002
F-3.9173770000000001
tp2611
Rp2612
ag4
(F3.9291377000000001
F-3.9173640000000001
tp2613
Rp2614
ag4
(F3.9291092999999999
F-3.9173510999999999
tp2615
Rp2616
ag4
(F3.9290809000000002
F-3.9173382000000001
tp2617
Rp2618
ag4
(F3.9290523999999998
F-3.9173250999999998
tp2619
Rp2620
ag4
(F3.9290235999999998
F-3.9173117
tp2621
Rp2622
ag4
(F3.9289947999999999
F-3.9172984
tp2623
Rp2624
ag4
(F3.9289660999999998
F-3.9172851
tp2625
Rp2626
ag4
(F3.9289372999999999
F-3.9172718
tp2627
Rp2628
ag4
(F3.9289087
F-3.9172585999999998
tp2629
Rp2630
ag4
(F3.9288802999999999
F-3.9172456000000002
tp2631
Rp2632
ag4
(F3.928852
F-3.9172326000000002
tp2633
Rp2634
ag4
(F3.9288237000000001
F-3.9172196000000001
tp2635
Rp2636
ag4
(F3.9287953
F-3.9172066000000001
tp2637
Rp2638
ag4
(F3.9287673000000001
F-3.9171936000000001
tp2639
Rp2640
ag4
(F3.9287396999999999
F-3.9171806
tp2641
Rp2642
ag4
(F3.9287120999999998
F-3.9171676
tp2643
Rp2644
ag4
(F3.9286845000000001
F-3.9171547000000002
tp2645
Rp2646
ag4
(F3.9286569
F-3.9171417000000002
tp2647
Rp2648
ag4
(F3.9286292999999999
F-3.9171287000000001
tp2649
Rp2650
ag4
(F3.9286017000000002
F-3.9171157000000001
tp2651
Rp2652
ag4
(F3.9285741000000001
F-3.9171027999999999
tp2653
Rp2654
ag4
(F3.9285464999999999
F-3.9170897999999998
tp2655
Rp2656
ag4
(F3.9285188999999998
F-3.9170767999999998
tp2657
Rp2658
ag4
(F3.9284913000000001
F-3.9170639
tp2659
Rp2660
ag4
(F3.9284637
F-3.9170509
tp2661
Rp2662
ag4
(F3.9284360999999999
F-3.9170379
tp2663
Rp2664
ag4
(F3.9284085000000002
F-3.9170248999999999
tp2665
Rp2666
ag4
(F3.9283809000000001
F-3.9170120000000002
tp2667
Rp2668
ag4
(F3.9283530999999998
F-3.9169988
tp2669
Rp2670
ag4
(F3.9283252000000002
F-3.9169855
tp2671
Rp2672
ag4
(F3.9282971999999998
F-3.9169721000000002
tp2673
Rp2674
ag4
(F3.9282691999999999
F-3.9169586999999999
tp2675
Rp2676
ag4
(F3.9282412
F-3.9169453999999999
tp2677
Rp2678
ag4
(F3.9282134000000002
F-3.9169322000000002
tp2679
Rp2680
ag4
(F3.9281858000000001
F-3.9169192000000002
tp2681
Rp2682
ag4
(F3.9281581999999999
F-3.9169063
tp2683
Rp2684
ag4
(F3.9281305999999998
F-3.9168932999999999
tp2685
Rp2686
ag4
(F3.9281030000000001
F-3.9168802999999999
tp2687
Rp2688
ag4
(F3.9280756999999999
F-3.9168674999999999
tp2689
Rp2690
ag4
(F3.9280485000000001
F-3.9168547999999999
tp2691
Rp2692
ag4
(F3.9280214
F-3.9168421000000002
tp2693
Rp2694
ag4
(F3.9279942999999999
F-3.9168295
tp2695
Rp2696
ag4
(F3.9279671999999999
F-3.9168167999999999
tp2697
Rp2698
ag4
(F3.9279408
F-3.9168045
tp2699
Rp2700
ag4
(F3.9279150999999999
F-3.9167926999999998
tp2701
Rp2702
ag4
(F3.9278894000000002
F-3.9167809
tp2703
Rp2704
ag4
(F3.9278637000000001
F-3.9167690999999998
tp2705
Rp2706
ag4
(F3.9278381000000002
F-3.9167572000000002
tp2707
Rp2708
ag4
(F3.9278124000000001
F-3.9167453999999999
tp2709
Rp2710
ag4
(F3.9277867
F-3.9167336000000001
tp2711
Rp2712
ag4
(F3.9277609999999998
F-3.9167217000000001
tp2713
Rp2714
ag4
(F3.9277354
F-3.9167098999999999
tp2715
Rp2716
ag4
(F3.9277096999999999
F-3.9166981000000001
tp2717
Rp2718
ag4
(F3.9276840000000002
F-3.9166862
tp2719
Rp2720
ag4
(F3.9276583
F-3.9166743999999998
tp2721
Rp2722
ag4
(F3.9276325999999999
F-3.9166626
tp2723
Rp2724
ag4
(F3.9276070000000001
F-3.9166506999999999
tp2725
Rp2726
ag4
(F3.9275812999999999
F-3.9166389000000001
tp2727
Rp2728
ag4
(F3.9275555999999998
F-3.9166270999999999
tp2729
Rp2730
ag4
(F3.9275299000000001
F-3.9166153000000001
tp2731
Rp2732
ag4
(F3.9275042
F-3.9166034000000001
tp2733
Rp2734
ag4
(F3.9274786000000002
F-3.9165915999999998
tp2735
Rp2736
ag4
(F3.9274529
F-3.9165798000000001
tp2737
Rp2738
ag4
(F3.9274271999999999
F-3.9165679
tp2739
Rp2740
ag4
(F3.9274015000000002
F-3.9165561000000002
tp2741
Rp2742
ag4
(F3.9273758999999999
F-3.9165443
tp2743
Rp2744
ag4
(F3.9273501999999998
F-3.9165323999999999
tp2745
Rp2746
ag4
(F3.9273245000000001
F-3.9165206000000001
tp2747
Rp2748
ag4
(F3.9272988999999998
F-3.9165087000000001
tp2749
Rp2750
ag4
(F3.9272733
F-3.9164968
tp2751
Rp2752
ag4
(F3.9272477000000001
F-3.9164848999999999
tp2753
Rp2754
ag4
(F3.9272220999999998
F-3.9164729999999999
tp2755
Rp2756
ag4
(F3.9271965
F-3.9164610999999998
tp2757
Rp2758
ag4
(F3.9271712999999999
F-3.9164492000000002
tp2759
Rp2760
ag4
(F3.9271463999999998
F-3.9164374
tp2761
Rp2762
ag4
(F3.9271215000000002
F-3.9164256000000002
tp2763
Rp2764
ag4
(F3.9270966
F-3.9164137000000001
tp2765
Rp2766
ag4
(F3.9270716000000001
F-3.9164018999999999
tp2767
Rp2768
ag4
(F3.9270467
F-3.9163901000000001
tp2769
Rp2770
ag4
(F3.9270217999999999
F-3.9163782999999999
tp2771
Rp2772
ag4
(F3.9269968999999998
F-3.9163665000000001
tp2773
Rp2774
ag4
(F3.9269718999999998
F-3.9163546
tp2775
Rp2776
ag4
(F3.9269470000000002
F-3.9163427999999998
tp2777
Rp2778
ag4
(F3.9269218000000001
F-3.9163307000000001
tp2779
Rp2780
ag4
(F3.9268964999999998
F-3.9163185
tp2781
Rp2782
ag4
(F3.9268711999999999
F-3.9163063
tp2783
Rp2784
ag4
(F3.9268459
F-3.9162941
tp2785
Rp2786
ag4
(F3.9268206000000001
F-3.9162819
tp2787
Rp2788
ag4
(F3.9267956000000002
F-3.9162699999999999
tp2789
Rp2790
ag4
(F3.9267706000000002
F-3.9162582000000001
tp2791
Rp2792
ag4
(F3.9267457000000001
F-3.9162463000000001
tp2793
Rp2794
ag4
(F3.9267208
F-3.9162344999999998
tp2795
Rp2796
ag4
(F3.9266958999999999
F-3.9162227000000001
tp2797
Rp2798
ag4
(F3.9266709999999998
F-3.9162108999999998
tp2799
Rp2800
ag4
(F3.9266459999999999
F-3.9161991
tp2801
Rp2802
ag4
(F3.9266211000000002
F-3.9161872
tp2803
Rp2804
ag4
(F3.9265962000000001
F-3.9161754000000002
tp2805
Rp2806
ag4
(F3.9265713
F-3.9161636
tp2807
Rp2808
ag4
(F3.9265463999999999
F-3.9161518000000002
tp2809
Rp2810
ag4
(F3.9265215000000002
F-3.9161399000000001
tp2811
Rp2812
ag4
(F3.9264966000000001
F-3.9161280000000001
tp2813
Rp2814
ag4
(F3.9264717
F-3.9161161
tp2815
Rp2816
ag4
(F3.9264469000000002
F-3.9161043000000002
tp2817
Rp2818
ag4
(F3.9264233000000002
F-3.9160933
tp2819
Rp2820
ag4
(F3.9264003000000001
F-3.9160826000000002
tp2821
Rp2822
ag4
(F3.9263772000000001
F-3.9160720000000002
tp2823
Rp2824
ag4
(F3.9263542
F-3.9160613999999998
tp2825
Rp2826
ag4
(F3.9263311999999999
F-3.9160507
tp2827
Rp2828
ag4
(F3.9263081
F-3.9160401
tp2829
Rp2830
ag4
(F3.9262850999999999
F-3.9160294000000002
tp2831
Rp2832
ag4
(F3.9262619999999999
F-3.9160187999999998
tp2833
Rp2834
ag4
(F3.9262389999999998
F-3.9160081999999998
tp2835
Rp2836
ag4
(F3.9262160000000002
F-3.9159975
tp2837
Rp2838
ag4
(F3.9261929000000002
F-3.9159869
tp2839
Rp2840
ag4
(F3.9261699000000001
F-3.9159761999999998
tp2841
Rp2842
ag4
(F3.9261468000000002
F-3.9159655999999998
tp2843
Rp2844
ag4
(F3.9261238000000001
F-3.9159549
tp2845
Rp2846
ag4
(F3.9261007999999999
F-3.9159443
tp2847
Rp2848
ag4
(F3.9260777
F-3.9159337000000001
tp2849
Rp2850
ag4
(F3.9260546999999999
F-3.9159229999999998
tp2851
Rp2852
ag4
(F3.9260316
F-3.9159123999999998
tp2853
Rp2854
ag4
(F3.9260085999999998
F-3.9159017
tp2855
Rp2856
ag4
(F3.9259856000000002
F-3.9158911000000001
tp2857
Rp2858
ag4
(F3.9259624999999998
F-3.9158803999999998
tp2859
Rp2860
ag4
(F3.9259395000000001
F-3.9158697999999998
tp2861
Rp2862
ag4
(F3.9259164000000002
F-3.9158591999999999
tp2863
Rp2864
ag4
(F3.9258934000000001
F-3.9158485000000001
tp2865
Rp2866
ag4
(F3.9258704
F-3.9158379000000001
tp2867
Rp2868
ag4
(F3.9258473
F-3.9158271999999998
tp2869
Rp2870
ag4
(F3.9258242999999999
F-3.9158165999999999
tp2871
Rp2872
ag4
(F3.9258012
F-3.9158059999999999
tp2873
Rp2874
ag4
(F3.9257781999999999
F-3.9157953000000001
tp2875
Rp2876
ag4
(F3.9257551999999998
F-3.9157847000000001
tp2877
Rp2878
ag4
(F3.9257327000000002
F-3.9157741000000001
tp2879
Rp2880
ag4
(F3.9257103999999998
F-3.9157635000000002
tp2881
Rp2882
ag4
(F3.9256880000000001
F-3.9157529000000002
tp2883
Rp2884
ag4
(F3.9256657000000001
F-3.9157424000000001
tp2885
Rp2886
ag4
(F3.9256432999999999
F-3.9157318000000001
tp2887
Rp2888
ag4
(F3.925621
F-3.9157212000000001
tp2889
Rp2890
ag4
(F3.9255987000000001
F-3.9157106000000002
tp2891
Rp2892
ag4
(F3.9255764000000002
F-3.9157000000000002
tp2893
Rp2894
ag4
(F3.9255540999999998
F-3.9156894000000002
tp2895
Rp2896
ag4
(F3.9255317000000001
F-3.9156787999999998
tp2897
Rp2898
ag4
(F3.9255091000000002
F-3.9156678999999999
tp2899
Rp2900
ag4
(F3.9254864
F-3.9156569000000001
tp2901
Rp2902
ag4
(F3.9254636999999999
F-3.9156458999999999
tp2903
Rp2904
ag4
(F3.9254410000000002
F-3.9156349000000001
tp2905
Rp2906
ag4
(F3.9254183
F-3.9156240000000002
tp2907
Rp2908
ag4
(F3.9253958999999998
F-3.9156133
tp2909
Rp2910
ag4
(F3.9253735999999999
F-3.9156027
tp2911
Rp2912
ag4
(F3.9253513
F-3.9155921
tp2913
Rp2914
ag4
(F3.9253288999999998
F-3.9155815
tp2915
Rp2916
ag4
(F3.9253065999999999
F-3.9155709000000001
tp2917
Rp2918
ag4
(F3.9252842999999999
F-3.9155603000000001
tp2919
Rp2920
ag4
(F3.925262
F-3.9155497000000001
tp2921
Rp2922
ag4
(F3.9252397000000001
F-3.9155392
tp2923
Rp2924
ag4
(F3.9252172999999999
F-3.9155286
tp2925
Rp2926
ag4
(F3.925195
F-3.9155180000000001
tp2927
Rp2928
ag4
(F3.9251724000000001
F-3.9155069999999998
tp2929
Rp2930
ag4
(F3.9251496000000001
F-3.9154960000000001
tp2931
Rp2932
ag4
(F3.9251269
F-3.9154851000000002
tp2933
Rp2934
ag4
(F3.9251041999999998
F-3.9154741
tp2935
Rp2936
ag4
(F3.9250815000000001
F-3.9154631000000002
tp2937
Rp2938
ag4
(F3.9250603000000002
F-3.9154521
tp2939
Rp2940
ag4
(F3.9250392000000001
F-3.9154409999999999
tp2941
Rp2942
ag4
(F3.9250180000000001
F-3.9154300000000002
tp2943
Rp2944
ag4
(F3.9249969
F-3.915419
tp2945
Rp2946
ag4
(F3.9249757999999999
F-3.9154080000000002
tp2947
Rp2948
ag4
(F3.9249546999999998
F-3.9153962
tp2949
Rp2950
ag4
(F3.9249337
F-3.9153842999999999
tp2951
Rp2952
ag4
(F3.9249125999999999
F-3.9153723999999999
tp2953
Rp2954
ag4
(F3.9248916
F-3.9153606000000001
tp2955
Rp2956
ag4
(F3.9248704999999999
F-3.9153487
tp2957
Rp2958
ag4
(F3.9248493999999998
F-3.9153368999999998
tp2959
Rp2960
ag4
(F3.9248284
F-3.9153250000000002
tp2961
Rp2962
ag4
(F3.9248072999999999
F-3.9153131999999999
tp2963
Rp2964
ag4
(F3.9247861999999998
F-3.9153012999999999
tp2965
Rp2966
ag4
(F3.9247652
F-3.9152895000000001
tp2967
Rp2968
ag4
(F3.9247445000000001
F-3.9152779999999998
tp2969
Rp2970
ag4
(F3.9247238000000002
F-3.9152665
tp2971
Rp2972
ag4
(F3.9247030999999999
F-3.9152551
tp2973
Rp2974
ag4
(F3.9246824
F-3.9152436000000002
tp2975
Rp2976
ag4
(F3.9246618
F-3.9152320999999999
tp2977
Rp2978
ag4
(F3.9246406999999999
F-3.9152203000000001
tp2979
Rp2980
ag4
(F3.9246196000000002
F-3.9152084
tp2981
Rp2982
ag4
(F3.9245985999999999
F-3.9151965999999998
tp2983
Rp2984
ag4
(F3.9245774999999998
F-3.9151847000000002
tp2985
Rp2986
ag4
(F3.9245564000000002
F-3.9151729
tp2987
Rp2988
ag4
(F3.9245212999999999
F-3.9151530999999999
tp2989
Rp2990
ag4
(F3.9244862
F-3.9151334000000002
tp2991
Rp2992
ag4
(F3.9244511000000002
F-3.9151136000000002
tp2993
Rp2994
ag4
(F3.9244175000000001
F-3.9150961999999998
tp2995
Rp2996
ag4
(F3.9243839999999999
F-3.9150787
tp2997
Rp2998
ag4
(F3.9243503999999998
F-3.9150613999999999
tp2999
Rp3000
ag4
(F3.9243182000000001
F-3.9150475999999998
tp3001
Rp3002
ag4
(F3.9242859999999999
F-3.9150339000000001
tp3003
Rp3004
ag4
(F3.9242539000000001
F-3.9150201999999998
tp3005
Rp3006
ag4
(F3.9242222999999998
F-3.9150070000000001
tp3007
Rp3008
ag4
(F3.9241907999999999
F-3.9149938999999998
tp3009
Rp3010
ag4
(F3.9241592000000001
F-3.9149807999999999
tp3011
Rp3012
ag4
(F3.9241269999999999
F-3.9149671000000001
tp3013
Rp3014
ag4
(F3.9240948000000002
F-3.9149533000000001
tp3015
Rp3016
ag4
(F3.9240626999999999
F-3.9149395999999999
tp3017
Rp3018
ag4
(F3.9240311000000001
F-3.9149265
tp3019
Rp3020
ag4
(F3.9239996000000001
F-3.9149134000000001
tp3021
Rp3022
ag4
(F3.9239679999999999
F-3.9149001999999999
tp3023
Rp3024
ag4
(F3.9239358000000002
F-3.9148865000000002
tp3025
Rp3026
ag4
(F3.9239036999999999
F-3.9148727000000001
tp3027
Rp3028
ag4
(F3.9238715000000002
F-3.9148589999999999
tp3029
Rp3030
ag4
(F3.9238400000000002
F-3.9148459
tp3031
Rp3032
ag4
(F3.9238084
F-3.9148328000000001
tp3033
Rp3034
ag4
(F3.9237768000000002
F-3.9148195000000001
tp3035
Rp3036
ag4
(F3.9237437000000002
F-3.9148041
tp3037
Rp3038
ag4
(F3.9237106000000002
F-3.9147886999999999
tp3039
Rp3040
ag4
(F3.9236776
F-3.9147732999999998
tp3041
Rp3042
ag4
(F3.9236445999999998
F-3.9147577
tp3043
Rp3044
ag4
(F3.9236116999999999
F-3.9147422000000001
tp3045
Rp3046
ag4
(F3.9235787000000002
F-3.9147267000000001
tp3047
Rp3048
ag4
(F3.9235457999999999
F-3.9147112000000002
tp3049
Rp3050
ag4
(F3.9235128000000001
F-3.9146955999999999
tp3051
Rp3052
ag4
(F3.9234798
F-3.9146801
tp3053
Rp3054
ag4
(F3.9234469000000001
F-3.9146646
tp3055
Rp3056
ag4
(F3.9234138999999999
F-3.9146489999999998
tp3057
Rp3058
ag4
(F3.923381
F-3.9146334999999999
tp3059
Rp3060
ag4
(F3.9233479999999998
F-3.9146179999999999
tp3061
Rp3062
ag4
(F3.9233150999999999
F-3.9146025
tp3063
Rp3064
ag4
(F3.9232821000000002
F-3.9145867999999999
tp3065
Rp3066
ag4
(F3.9232485000000001
F-3.9145707000000001
tp3067
Rp3068
ag4
(F3.9232149000000001
F-3.9145544999999999
tp3069
Rp3070
ag4
(F3.9231813999999998
F-3.9145384000000001
tp3071
Rp3072
ag4
(F3.9231484999999999
F-3.9145227999999999
tp3073
Rp3074
ag4
(F3.9231156
F-3.9145072000000001
tp3075
Rp3076
ag4
(F3.9230828999999998
F-3.9144915999999998
tp3077
Rp3078
ag4
(F3.9230510999999999
F-3.9144763
tp3079
Rp3080
ag4
(F3.9230192000000002
F-3.9144608999999999
tp3081
Rp3082
ag4
(F3.9229873
F-3.9144454
tp3083
Rp3084
ag4
(F3.9229547999999999
F-3.9144293999999999
tp3085
Rp3086
ag4
(F3.9229224
F-3.9144133999999999
tp3087
Rp3088
ag4
(F3.9228900000000002
F-3.9143975000000002
tp3089
Rp3090
ag4
(F3.9228581999999999
F-3.9143821000000001
tp3091
Rp3092
ag4
(F3.9228263000000001
F-3.9143667999999998
tp3093
Rp3094
ag4
(F3.9227943999999999
F-3.9143512999999999
tp3095
Rp3096
ag4
(F3.9227618999999998
F-3.9143352999999999
tp3097
Rp3098
ag4
(F3.9227295
F-3.9143192
tp3099
Rp3100
ag4
(F3.9226971000000002
F-3.9143034000000001
tp3101
Rp3102
ag4
(F3.9226652999999998
F-3.914288
tp3103
Rp3104
ag4
(F3.9226334
F-3.9142725999999999
tp3105
Rp3106
ag4
(F3.9226014999999999
F-3.9142570999999999
tp3107
Rp3108
ag4
(F3.9225690000000002
F-3.9142410999999999
tp3109
Rp3110
ag4
(F3.9225365000000001
F-3.9142250999999999
tp3111
Rp3112
ag4
(F3.9225045000000001
F-3.9142093999999998
tp3113
Rp3114
ag4
(F3.9224741999999999
F-3.9141951000000001
tp3115
Rp3116
ag4
(F3.9224437999999999
F-3.9141808
tp3117
Rp3118
ag4
(F3.9224136000000001
F-3.9141666000000002
tp3119
Rp3120
ag4
(F3.9223842000000002
F-3.9141526999999998
tp3121
Rp3122
ag4
(F3.9223547000000001
F-3.9141387999999999
tp3123
Rp3124
ag4
(F3.9223252
F-3.9141249
tp3125
Rp3126
ag4
(F3.9222958000000001
F-3.9141110000000001
tp3127
Rp3128
ag4
(F3.9222663
F-3.9140971000000002
tp3129
Rp3130
ag4
(F3.9222367999999999
F-3.9140831999999999
tp3131
Rp3132
ag4
(F3.9222074
F-3.9140693
tp3133
Rp3134
ag4
(F3.9221778999999999
F-3.9140552999999998
tp3135
Rp3136
ag4
(F3.9221484000000002
F-3.9140413999999999
tp3137
Rp3138
ag4
(F3.9221189999999999
F-3.9140275
tp3139
Rp3140
ag4
(F3.9220894999999998
F-3.9140136000000001
tp3141
Rp3142
ag4
(F3.9220600000000001
F-3.9139997000000002
tp3143
Rp3144
ag4
(F3.9220305999999998
F-3.9139857999999998
tp3145
Rp3146
ag4
(F3.9220011000000001
F-3.9139718999999999
tp3147
Rp3148
ag4
(F3.9219718000000001
F-3.9139580999999999
tp3149
Rp3150
ag4
(F3.9219430000000002
F-3.9139449000000002
tp3151
Rp3152
ag4
(F3.9219141
F-3.9139316000000002
tp3153
Rp3154
ag4
(F3.9218852000000002
F-3.9139181000000001
tp3155
Rp3156
ag4
(F3.921856
F-3.9139039000000002
tp3157
Rp3158
ag4
(F3.9218267999999998
F-3.9138896999999999
tp3159
Rp3160
ag4
(F3.9217979000000001
F-3.9138757000000002
tp3161
Rp3162
ag4
(F3.9217694999999999
F-3.913862
tp3163
Rp3164
ag4
(F3.9217411000000002
F-3.9138483000000002
tp3165
Rp3166
ag4
(F3.9217124999999999
F-3.9138343999999998
tp3167
Rp3168
ag4
(F3.9216834
F-3.9138199999999999
tp3169
Rp3170
ag4
(F3.9216544
F-3.9138057000000002
tp3171
Rp3172
ag4
(F3.9216255000000002
F-3.9137914999999999
tp3173
Rp3174
ag4
(F3.9215971000000001
F-3.9137778000000001
tp3175
Rp3176
ag4
(F3.9215686999999999
F-3.9137640999999999
tp3177
Rp3178
ag4
(F3.9215403000000002
F-3.9137504000000001
tp3179
Rp3180
ag4
(F3.9215119000000001
F-3.9137366999999998
tp3181
Rp3182
ag4
(F3.9214834999999999
F-3.9137230000000001
tp3183
Rp3184
ag4
(F3.9214551000000002
F-3.9137092999999998
tp3185
Rp3186
ag4
(F3.9214267
F-3.9136956000000001
tp3187
Rp3188
ag4
(F3.9213982999999999
F-3.9136818999999998
tp3189
Rp3190
ag4
(F3.9213697000000001
F-3.9136679999999999
tp3191
Rp3192
ag4
(F3.9213407
F-3.9136536999999998
tp3193
Rp3194
ag4
(F3.9213116000000001
F-3.9136392999999998
tp3195
Rp3196
ag4
(F3.9212829
F-3.9136251
tp3197
Rp3198
ag4
(F3.9212547999999998
F-3.9136110999999998
tp3199
Rp3200
ag4
(F3.9212267000000001
F-3.9135971999999999
tp3201
Rp3202
ag4
(F3.9211988
F-3.9135833999999998
tp3203
Rp3204
ag4
(F3.9211714999999998
F-3.9135699000000002
tp3205
Rp3206
ag4
(F3.9211440999999998
F-3.9135564
tp3207
Rp3208
ag4
(F3.9211165000000001
F-3.9135426999999998
tp3209
Rp3210
ag4
(F3.9210885000000002
F-3.9135285999999998
tp3211
Rp3212
ag4
(F3.9210604999999998
F-3.9135144999999998
tp3213
Rp3214
ag4
(F3.9210324999999999
F-3.9135004000000002
tp3215
Rp3216
ag4
(F3.9210045
F-3.9134863000000002
tp3217
Rp3218
ag4
(F3.9209765000000001
F-3.9134722000000002
tp3219
Rp3220
ag4
(F3.9209485000000002
F-3.9134581000000002
tp3221
Rp3222
ag4
(F3.9209204999999998
F-3.9134440000000001
tp3223
Rp3224
ag4
(F3.9208924999999999
F-3.9134299000000001
tp3225
Rp3226
ag4
(F3.9208647999999999
F-3.9134161000000001
tp3227
Rp3228
ag4
(F3.9208373999999999
F-3.9134026
tp3229
Rp3230
ag4
(F3.9208101000000002
F-3.9133890999999998
tp3231
Rp3232
ag4
(F3.9207823999999998
F-3.9133754000000001
tp3233
Rp3234
ag4
(F3.9207543999999999
F-3.9133613
tp3235
Rp3236
ag4
(F3.9207263999999999
F-3.9133472
tp3237
Rp3238
ag4
(F3.9206991000000002
F-3.9133334999999998
tp3239
Rp3240
ag4
(F3.9206726000000001
F-3.9133205000000002
tp3241
Rp3242
ag4
(F3.9206460999999999
F-3.9133073999999999
tp3243
Rp3244
ag4
(F3.9206202999999999
F-3.9132948000000001
tp3245
Rp3246
ag4
(F3.9205952000000002
F-3.9132829
tp3247
Rp3248
ag4
(F3.9205700999999999
F-3.9132709000000001
tp3249
Rp3250
ag4
(F3.9205451
F-3.913259
tp3251
Rp3252
ag4
(F3.9205199999999998
F-3.9132471
tp3253
Rp3254
ag4
(F3.9204949
F-3.9132351000000001
tp3255
Rp3256
ag4
(F3.9204696000000001
F-3.9132229000000001
tp3257
Rp3258
ag4
(F3.9204439
F-3.9132102999999998
tp3259
Rp3260
ag4
(F3.9204181999999999
F-3.9131977999999998
tp3261
Rp3262
ag4
(F3.9203926999999998
F-3.9131855
tp3263
Rp3264
ag4
(F3.9203676999999999
F-3.9131735999999999
tp3265
Rp3266
ag4
(F3.9203426000000001
F-3.9131616
tp3267
Rp3268
ag4
(F3.9203174999999999
F-3.9131497
tp3269
Rp3270
ag4
(F3.9202925
F-3.9131377999999999
tp3271
Rp3272
ag4
(F3.9202674000000002
F-3.9131258
tp3273
Rp3274
ag4
(F3.920242
F-3.9131136
tp3275
Rp3276
ag4
(F3.9202162999999999
F-3.9131010000000002
tp3277
Rp3278
ag4
(F3.9201906000000002
F-3.9130885000000002
tp3279
Rp3280
ag4
(F3.9201652999999999
F-3.9130761000000001
tp3281
Rp3282
ag4
(F3.9201404000000002
F-3.9130639999999999
tp3283
Rp3284
ag4
(F3.9201155999999999
F-3.9130519000000001
tp3285
Rp3286
ag4
(F3.9200908000000001
F-3.9130397000000001
tp3287
Rp3288
ag4
(F3.9200661000000001
F-3.9130273999999998
tp3289
Rp3290
ag4
(F3.9200412999999998
F-3.9130151
tp3291
Rp3292
ag4
(F3.9200170000000001
F-3.9130031000000001
tp3293
Rp3294
ag4
(F3.9199929
F-3.9129915
tp3295
Rp3296
ag4
(F3.9199687999999999
F-3.9129798
tp3297
Rp3298
ag4
(F3.9199443999999999
F-3.9129678999999999
tp3299
Rp3300
ag4
(F3.9199196999999999
F-3.9129556000000001
tp3301
Rp3302
ag4
(F3.9198949999999999
F-3.9129432999999998
tp3303
Rp3304
ag4
(F3.9198702999999999
F-3.9129309999999999
tp3305
Rp3306
ag4
(F3.9198455999999999
F-3.9129187000000001
tp3307
Rp3308
ag4
(F3.9198208999999999
F-3.9129063999999998
tp3309
Rp3310
ag4
(F3.9197962
F-3.9128940999999999
tp3311
Rp3312
ag4
(F3.9197715
F-3.9128818000000001
tp3313
Rp3314
ag4
(F3.9197468
F-3.9128694999999998
tp3315
Rp3316
ag4
(F3.9197221
F-3.9128571999999999
tp3317
Rp3318
ag4
(F3.9196973000000002
F-3.9128449000000001
tp3319
Rp3320
ag4
(F3.9196726000000002
F-3.9128326000000002
tp3321
Rp3322
ag4
(F3.919648
F-3.9128202999999999
tp3323
Rp3324
ag4
(F3.9196233999999999
F-3.9128078999999998
tp3325
Rp3326
ag4
(F3.9195986999999999
F-3.9127955999999999
tp3327
Rp3328
ag4
(F3.9195745999999998
F-3.9127833999999999
tp3329
Rp3330
ag4
(F3.9195508999999999
F-3.9127714
tp3331
Rp3332
ag4
(F3.9195272000000001
F-3.9127594000000001
tp3333
Rp3334
ag4
(F3.9195034
F-3.9127474000000002
tp3335
Rp3336
ag4
(F3.9194797000000001
F-3.9127353999999999
tp3337
Rp3338
ag4
(F3.9194559999999998
F-3.9127234
tp3339
Rp3340
ag4
(F3.9194319000000002
F-3.9127111000000001
tp3341
Rp3342
ag4
(F3.9194075000000002
F-3.9126984
tp3343
Rp3344
ag4
(F3.9193831000000001
F-3.9126858000000002
tp3345
Rp3346
ag4
(F3.9193590999999999
F-3.9126736000000002
tp3347
Rp3348
ag4
(F3.9193354
F-3.9126615999999999
tp3349
Rp3350
ag4
(F3.9193117000000002
F-3.9126495999999999
tp3351
Rp3352
ag4
(F3.9192879
F-3.9126376
tp3353
Rp3354
ag4
(F3.9192642000000002
F-3.9126256000000001
tp3355
Rp3356
ag4
(F3.9192404999999999
F-3.9126135999999998
tp3357
Rp3358
ag4
(F3.9192163999999998
F-3.9126012000000001
tp3359
Rp3360
ag4
(F3.9191919999999998
F-3.9125885999999999
tp3361
Rp3362
ag4
(F3.9191676000000002
F-3.9125759000000002
tp3363
Rp3364
ag4
(F3.9191436999999998
F-3.9125637000000002
tp3365
Rp3366
ag4
(F3.9191199000000001
F-3.9125516999999999
tp3367
Rp3368
ag4
(F3.9190961999999998
F-3.9125397
tp3369
Rp3370
ag4
(F3.9190735000000001
F-3.9125283999999998
tp3371
Rp3372
ag4
(F3.9190513
F-3.9125174
tp3373
Rp3374
ag4
(F3.9190290999999999
F-3.9125063999999998
tp3375
Rp3376
ag4
(F3.9190073999999999
F-3.9124957999999999
tp3377
Rp3378
ag4
(F3.9189859
F-3.9124854
tp3379
Rp3380
ag4
(F3.9189644000000001
F-3.9124750000000001
tp3381
Rp3382
ag4
(F3.9189428999999998
F-3.9124645999999998
tp3383
Rp3384
ag4
(F3.9189213999999999
F-3.9124542
tp3385
Rp3386
ag4
(F3.9188999
F-3.9124438000000001
tp3387
Rp3388
ag4
(F3.9188784000000001
F-3.9124333999999998
tp3389
Rp3390
ag4
(F3.9188569000000002
F-3.912423
tp3391
Rp3392
ag4
(F3.9188353999999999
F-3.9124126000000001
tp3393
Rp3394
ag4
(F3.9188139
F-3.9124021999999998
tp3395
Rp3396
ag4
(F3.9187924000000001
F-3.9123918
tp3397
Rp3398
ag4
(F3.9187709000000002
F-3.9123814000000001
tp3399
Rp3400
ag4
(F3.918749
F-3.9123706
tp3401
Rp3402
ag4
(F3.9187268
F-3.9123595
tp3403
Rp3404
ag4
(F3.9187047000000002
F-3.9123484999999998
tp3405
Rp3406
ag4
(F3.9186830000000001
F-3.9123378999999998
tp3407
Rp3408
ag4
(F3.9186614999999998
F-3.9123275
tp3409
Rp3410
ag4
(F3.9186399999999999
F-3.9123171000000001
tp3411
Rp3412
ag4
(F3.9186182000000001
F-3.9123062000000002
tp3413
Rp3414
ag4
(F3.9185960999999998
F-3.9122949999999999
tp3415
Rp3416
ag4
(F3.9185740999999998
F-3.9122838999999998
tp3417
Rp3418
ag4
(F3.9185517999999999
F-3.9122721
tp3419
Rp3420
ag4
(F3.9185292999999999
F-3.9122602
tp3421
Rp3422
ag4
(F3.9185067999999998
F-3.9122482000000001
tp3423
Rp3424
ag4
(F3.9184839
F-3.9122357000000001
tp3425
Rp3426
ag4
(F3.9184608000000001
F-3.9122230999999998
tp3427
Rp3428
ag4
(F3.9184377000000001
F-3.9122105
tp3429
Rp3430
ag4
(F3.918415
F-3.9121983999999999
tp3431
Rp3432
ag4
(F3.9183925999999998
F-3.9121864
tp3433
Rp3434
ag4
(F3.9183701000000002
F-3.9121744000000001
tp3435
Rp3436
ag4
(F3.9183471000000001
F-3.9121619000000001
tp3437
Rp3438
ag4
(F3.9183240000000001
F-3.9121492999999998
tp3439
Rp3440
ag4
(F3.9183009000000002
F-3.9121367
tp3441
Rp3442
ag4
(F3.9182782999999999
F-3.9121245999999998
tp3443
Rp3444
ag4
(F3.9182557999999998
F-3.9121125999999999
tp3445
Rp3446
ag4
(F3.9182334000000001
F-3.9121006
tp3447
Rp3448
ag4
(F3.9182104
F-3.9120881999999999
tp3449
Rp3450
ag4
(F3.9181873
F-3.9120754999999998
tp3451
Rp3452
ag4
(F3.9181642000000001
F-3.9120629
tp3453
Rp3454
ag4
(F3.9181415999999998
F-3.9120507999999998
tp3455
Rp3456
ag4
(F3.9181191000000002
F-3.9120387999999999
tp3457
Rp3458
ag4
(F3.9180967
F-3.9120268999999999
tp3459
Rp3460
ag4
(F3.9180752999999999
F-3.9120157
tp3461
Rp3462
ag4
(F3.9180543999999999
F-3.9120048000000001
tp3463
Rp3464
ag4
(F3.9180334000000001
F-3.9119939000000001
tp3465
Rp3466
ag4
(F3.9180123999999998
F-3.9119828999999999
tp3467
Rp3468
ag4
(F3.9179914999999998
F-3.911972
tp3469
Rp3470
ag4
(F3.9179705999999999
F-3.9119609999999998
tp3471
Rp3472
ag4
(F3.9179501999999999
F-3.9119505000000001
tp3473
Rp3474
ag4
(F3.9179300000000001
F-3.9119400999999998
tp3475
Rp3476
ag4
(F3.9179097000000001
F-3.9119297999999998
tp3477
Rp3478
ag4
(F3.9178894
F-3.9119193999999999
tp3479
Rp3480
ag4
(F3.9178692000000002
F-3.9119090999999999
tp3481
Rp3482
ag4
(F3.9178489000000001
F-3.9118987000000001
tp3483
Rp3484
ag4
(F3.9178280999999999
F-3.9118879
tp3485
Rp3486
ag4
(F3.9178071999999999
F-3.9118769000000002
tp3487
Rp3488
ag4
(F3.9177862999999999
F-3.9118659
tp3489
Rp3490
ag4
(F3.9177659
F-3.9118553999999999
tp3491
Rp3492
ag4
(F3.9177455999999999
F-3.9118450999999999
tp3493
Rp3494
ag4
(F3.9177254000000001
F-3.9118347
tp3495
Rp3496
ag4
(F3.9177051000000001
F-3.9118244
tp3497
Rp3498
ag4
(F3.9176848
F-3.9118140000000001
tp3499
Rp3500
ag4
(F3.9176646000000002
F-3.9118037000000001
tp3501
Rp3502
ag4
(F3.9176437000000002
F-3.9117928000000002
tp3503
Rp3504
ag4
(F3.9176228000000002
F-3.9117818
tp3505
Rp3506
ag4
(F3.9176019000000002
F-3.9117708000000002
tp3507
Rp3508
ag4
(F3.9175835000000001
F-3.9117617999999998
tp3509
Rp3510
ag4
(F3.9175654
F-3.9117530999999999
tp3511
Rp3512
ag4
(F3.9175472999999998
F-3.9117443999999999
tp3513
Rp3514
ag4
(F3.9175292000000002
F-3.9117356999999999
tp3515
Rp3516
ag4
(F3.9175111
F-3.911727
tp3517
Rp3518
ag4
(F3.9174929999999999
F-3.9117183
tp3519
Rp3520
ag4
(F3.9174744000000001
F-3.9117090000000001
tp3521
Rp3522
ag4
(F3.9174555999999998
F-3.9116996999999998
tp3523
Rp3524
ag4
(F3.9174369000000002
F-3.9116903000000001
tp3525
Rp3526
ag4
(F3.9174188000000001
F-3.9116816000000001
tp3527
Rp3528
ag4
(F3.9174007
F-3.9116727999999998
tp3529
Rp3530
ag4
(F3.9173825999999998
F-3.9116640999999999
tp3531
Rp3532
ag4
(F3.9173645000000001
F-3.9116553999999999
tp3533
Rp3534
ag4
(F3.9173464
F-3.9116466999999999
tp3535
Rp3536
ag4
(F3.9173284000000002
F-3.9116379999999999
tp3537
Rp3538
ag4
(F3.9173097000000001
F-3.9116287000000001
tp3539
Rp3540
ag4
(F3.9172910000000001
F-3.9116194000000002
tp3541
Rp3542
ag4
(F3.9172722000000002
F-3.91161
tp3543
Rp3544
ag4
(F3.9172541000000001
F-3.9116013000000001
tp3545
Rp3546
ag4
(F3.9172359999999999
F-3.9115926000000001
tp3547
Rp3548
ag4
(F3.9172178999999998
F-3.9115839000000001
tp3549
Rp3550
ag4
(F3.9171999
F-3.9115750999999999
tp3551
Rp3552
ag4
(F3.9171817999999998
F-3.9115663999999999
tp3553
Rp3554
ag4
(F3.9171637000000001
F-3.9115576999999999
tp3555
Rp3556
ag4
(F3.9171440999999998
F-3.9115468999999998
tp3557
Rp3558
ag4
(F3.9171242999999998
F-3.9115359999999999
tp3559
Rp3560
ag4
(F3.9171046
F-3.9115251999999998
tp3561
Rp3562
ag4
(F3.9170848999999999
F-3.9115142999999999
tp3563
Rp3564
ag4
(F3.9170650999999999
F-3.9115034
tp3565
Rp3566
ag4
(F3.9170454000000001
F-3.9114925
tp3567
Rp3568
ag4
(F3.9170262
F-3.9114822999999999
tp3569
Rp3570
ag4
(F3.9170071000000002
F-3.9114719999999998
tp3571
Rp3572
ag4
(F3.9169879999999999
F-3.9114618000000001
tp3573
Rp3574
ag4
(F3.9169683000000002
F-3.9114509000000002
tp3575
Rp3576
ag4
(F3.9169486
F-3.9114401000000001
tp3577
Rp3578
ag4
(F3.9169288
F-3.9114292000000002
tp3579
Rp3580
ag4
(F3.9169097000000002
F-3.9114189000000001
tp3581
Rp3582
ag4
(F3.9168905999999999
F-3.9114087
tp3583
Rp3584
ag4
(F3.9168715000000001
F-3.9113984999999998
tp3585
Rp3586
asS'ev'
p3587
(lp3588
F14228.093999999999
aF14237.458000000001
aF14246.823
aF14256.187
aF14265.552
aF14274.915999999999
aF14284.281000000001
aF14293.645
aF14303.01
aF14312.375
aF14321.739
aF14331.103999999999
aF14340.468000000001
aF14349.833000000001
aF14359.197
aF14368.562
aF14377.925999999999
aF14387.290999999999
aF14396.656000000001
aF14406.02
aF14415.385
aF14424.749
aF14434.114
aF14443.477999999999
aF14452.843000000001
aF14462.207
aF14471.572
aF14480.936
aF14490.300999999999
aF14499.665999999999
aF14509.030000000001
aF14518.395
aF14527.759
aF14537.124
aF14546.487999999999
aF14555.852999999999
aF14565.217000000001
aF14574.582
aF14583.946
aF14593.311
aF14602.675999999999
aF14612.040000000001
aF14621.405000000001
aF14630.769
aF14640.134
aF14649.498
aF14658.862999999999
aF14668.227000000001
aF14677.592000000001
aF14686.957
aF14696.321
aF14705.686
aF14715.049999999999
aF14724.415000000001
aF14733.779
aF14743.144
aF14752.508
aF14761.873
aF14771.236999999999
aF14780.602000000001
aF14789.967000000001
aF14799.331
aF14808.696
aF14818.059999999999
aF14827.424999999999
aF14836.789000000001
aF14846.154
aF14855.518
aF14864.883
aF14874.246999999999
aF14883.611999999999
aF14892.977000000001
aF14902.341
aF14911.706
aF14921.07
aF14930.434999999999
aF14939.799000000001
aF14949.164000000001
aF14958.528
aF14967.893
aF14977.258
aF14986.621999999999
aF14995.986999999999
aF15005.351000000001
aF15014.716
aF15024.08
aF15033.445
aF15042.808999999999
aF15052.174000000001
aF15061.538
aF15070.903
aF15080.268
aF15089.632
aF15098.996999999999
aF15108.361000000001
aF15117.726000000001
aF15127.09
aF15136.455
aF15145.819
aF15155.183999999999
aF15164.548000000001
aF15173.913
aF15183.278
aF15192.642
aF15202.007
aF15211.370999999999
aF15220.736000000001
aF15230.1
aF15239.465
aF15248.829
aF15258.194
aF15267.558999999999
aF15276.923000000001
aF15286.288
aF15295.652
aF15305.017
aF15314.380999999999
aF15323.745999999999
aF15333.110000000001
aF15342.475
aF15351.839
aF15361.204
aF15370.569
aF15379.933000000001
aF15389.298000000001
aF15398.662
aF15408.027
aF15417.391
aF15426.755999999999
aF15436.120000000001
aF15445.485000000001
aF15454.849
aF15464.214
aF15473.579
aF15482.942999999999
aF15492.308000000001
aF15501.672
aF15511.037
aF15520.401
aF15529.766
aF15539.129999999999
aF15548.495000000001
aF15557.860000000001
aF15567.224
aF15576.589
aF15585.953
aF15595.317999999999
aF15604.682000000001
aF15614.047
aF15623.411
aF15632.776
aF15642.139999999999
aF15651.504999999999
aF15660.870000000001
aF15670.234
aF15679.599
aF15688.963
aF15698.328
aF15707.691999999999
aF15717.057000000001
aF15726.421
aF15735.786
aF15745.151
aF15754.514999999999
aF15763.879999999999
aF15773.244000000001
aF15782.609
aF15791.973
aF15801.338
aF15810.701999999999
aF15820.066999999999
aF15829.431
aF15838.796
aF15848.161
aF15857.525
aF15866.889999999999
aF15876.254000000001
aF15885.619000000001
aF15894.983
aF15904.348
aF15913.712
aF15923.076999999999
aF15932.441000000001
aF15941.806
aF15951.171
aF15960.535
aF15969.9
aF15979.263999999999
aF15988.629000000001
aF15997.993
aF16007.358
aF16016.722
aF16026.087
aF16035.451999999999
aF16044.816000000001
aF16054.181
aF16063.545
aF16072.91
aF16082.273999999999
aF16091.638999999999
aF16101.003000000001
aF16110.368
aF16119.732
aF16129.097
aF16138.462
aF16147.825999999999
aF16157.191000000001
aF16166.555
aF16175.92
aF16185.284
aF16194.648999999999
aF16204.013000000001
aF16213.378000000001
aF16222.742
aF16232.107
aF16241.472
aF16250.835999999999
aF16260.200999999999
aF16269.565000000001
aF16278.93
aF16288.294
aF16297.659
aF16307.022999999999
aF16316.388000000001
aF16325.753000000001
aF16335.117
aF16344.482
aF16353.846
aF16363.210999999999
aF16372.575000000001
aF16381.940000000001
aF16391.304
aF16400.669000000002
aF16410.032999999999
aF16419.398000000001
aF16428.762999999999
aF16438.127
aF16447.491999999998
aF16456.856
aF16466.221000000001
aF16475.584999999999
aF16484.950000000001
aF16494.313999999998
aF16503.679
aF16513.043000000001
aF16522.407999999999
aF16531.773000000001
aF16541.136999999999
aF16550.502
aF16559.866000000002
aF16569.231
aF16578.595000000001
aF16587.959999999999
aF16597.324000000001
aF16606.688999999998
aF16616.054
aF16625.418000000001
aF16634.782999999999
aF16644.147000000001
aF16653.511999999999
aF16662.876
aF16672.241000000002
aF16681.605
aF16690.970000000001
aF16700.333999999999
aF16709.699000000001
aF16719.063999999998
aF16728.428
aF16737.793000000001
aF16747.156999999999
aF16756.522000000001
aF16765.885999999999
aF16775.251
aF16784.615000000002
aF16793.98
aF16803.344000000001
aF16812.708999999999
aF16822.074000000001
aF16831.437999999998
aF16840.803
aF16850.167000000001
aF16859.531999999999
aF16868.896000000001
aF16878.260999999999
aF16887.625
aF16896.990000000002
aF16906.355
aF16915.719000000001
aF16925.083999999999
aF16934.448
aF16943.812999999998
aF16953.177
aF16962.542000000001
aF16971.905999999999
aF16981.271000000001
aF16990.634999999998
aF17000.0
aF17010.032999999999
aF17020.066999999999
aF17030.099999999999
aF17040.133999999998
aF17050.167000000001
aF17060.201000000001
aF17070.234
aF17080.268
aF17090.300999999999
aF17100.333999999999
aF17110.367999999999
aF17120.401000000002
aF17130.435000000001
aF17140.468000000001
aF17150.502
aF17160.535
aF17170.569
aF17180.601999999999
aF17190.634999999998
aF17200.669000000002
aF17210.702000000001
aF17220.736000000001
aF17230.769
aF17240.803
aF17250.835999999999
aF17260.869999999999
aF17270.902999999998
aF17280.936000000002
aF17290.970000000001
aF17301.003000000001
aF17311.037
aF17321.07
aF17331.103999999999
aF17341.136999999999
aF17351.170999999998
aF17361.204000000002
aF17371.237000000001
aF17381.271000000001
aF17391.304
aF17401.338
aF17411.370999999999
aF17421.404999999999
aF17431.437999999998
aF17441.472000000002
aF17451.505000000001
aF17461.538
aF17471.572
aF17481.605
aF17491.638999999999
aF17501.671999999999
aF17511.705999999998
aF17521.739000000001
aF17531.773000000001
aF17541.806
aF17551.839
aF17561.873
aF17571.905999999999
aF17581.939999999999
aF17591.973000000002
aF17602.007000000001
aF17612.040000000001
aF17622.074000000001
aF17632.107
aF17642.139999999999
aF17652.173999999999
aF17662.206999999999
aF17672.241000000002
aF17682.274000000001
aF17692.308000000001
aF17702.341
aF17712.375
aF17722.407999999999
aF17732.440999999999
aF17742.474999999999
aF17752.508000000002
aF17762.542000000001
aF17772.575000000001
aF17782.609
aF17792.642
aF17802.675999999999
aF17812.708999999999
aF17822.741999999998
aF17832.776000000002
aF17842.809000000001
aF17852.843000000001
aF17862.876
aF17872.91
aF17882.942999999999
aF17892.976999999999
aF17903.009999999998
aF17913.043000000001
aF17923.077000000001
aF17933.110000000001
aF17943.144
aF17953.177
aF17963.210999999999
aF17973.243999999999
aF17983.277999999998
aF17993.311000000002
aF18003.344000000001
aF18013.378000000001
aF18023.411
aF18033.445
aF18043.477999999999
aF18053.511999999999
aF18063.544999999998
aF18073.579000000002
aF18083.612000000001
aF18093.645
aF18103.679
aF18113.712
aF18123.745999999999
aF18133.778999999999
aF18143.812999999998
aF18153.846000000001
aF18163.880000000001
aF18173.913
aF18183.946
aF18193.98
aF18204.012999999999
aF18214.046999999999
aF18224.080000000002
aF18234.114000000001
aF18244.147000000001
aF18254.181
aF18264.214
aF18274.246999999999
aF18284.280999999999
aF18294.313999999998
aF18304.348000000002
aF18314.381000000001
aF18324.415000000001
aF18334.448
aF18344.482
aF18354.514999999999
aF18364.547999999999
aF18374.581999999999
aF18384.615000000002
aF18394.649000000001
aF18404.682000000001
aF18414.716
aF18424.749
aF18434.782999999999
aF18444.815999999999
aF18454.848999999998
aF18464.883000000002
aF18474.916000000001
aF18484.950000000001
aF18494.983
aF18505.017
aF18515.049999999999
aF18525.083999999999
aF18535.116999999998
aF18545.151000000002
aF18555.184000000001
aF18565.217000000001
aF18575.251
aF18585.284
aF18595.317999999999
aF18605.350999999999
aF18615.384999999998
aF18625.418000000001
aF18635.452000000001
aF18645.485000000001
aF18655.518
aF18665.552
aF18675.584999999999
aF18685.618999999999
aF18695.651999999998
aF18705.686000000002
aF18715.719000000001
aF18725.753000000001
aF18735.786
aF18745.819
aF18755.852999999999
aF18765.885999999999
aF18775.919999999998
aF18785.953000000001
aF18795.987000000001
aF18806.02
aF18816.054
aF18826.087
aF18836.119999999999
aF18846.153999999999
aF18856.187000000002
aF18866.221000000001
aF18876.254000000001
aF18886.288
aF18896.321
aF18906.355
aF18916.387999999999
aF18926.420999999998
aF18936.455000000002
aF18946.488000000001
aF18956.522000000001
aF18966.555
aF18976.589
aF18986.621999999999
aF18996.655999999999
aF19006.688999999998
aF19016.722000000002
aF19026.756000000001
aF19036.789000000001
aF19046.823
aF19056.856
aF19066.889999999999
aF19076.922999999999
aF19086.956999999999
aF19096.990000000002
aF19107.023000000001
aF19117.057000000001
aF19127.09
aF19137.124
aF19147.156999999999
aF19157.190999999999
aF19167.223999999998
aF19177.258000000002
aF19187.291000000001
aF19197.324000000001
aF19207.358
aF19217.391
aF19227.424999999999
aF19237.457999999999
aF19247.491999999998
aF19257.525000000001
aF19267.559000000001
aF19277.592000000001
aF19287.625
aF19297.659
aF19307.691999999999
aF19317.725999999999
aF19327.758999999998
aF19337.793000000001
aF19347.826000000001
aF19357.860000000001
aF19367.893
aF19377.925999999999
aF19387.959999999999
aF19397.992999999999
aF19408.026999999998
aF19418.060000000001
aF19428.094000000001
aF19438.127
aF19448.161
aF19458.194
aF19468.226999999999
aF19478.260999999999
aF19488.294000000002
aF19498.328000000001
aF19508.361000000001
aF19518.395
aF19528.428
aF19538.462
aF19548.494999999999
aF19558.527999999998
aF19568.562000000002
aF19578.595000000001
aF19588.629000000001
aF19598.662
aF19608.696
aF19618.728999999999
aF19628.762999999999
aF19638.795999999998
aF19648.829000000002
aF19658.863000000001
aF19668.896000000001
aF19678.93
aF19688.963
aF19698.996999999999
aF19709.029999999999
aF19719.063999999998
aF19729.097000000002
aF19739.130000000001
aF19749.164000000001
aF19759.197
aF19769.231
aF19779.263999999999
aF19789.297999999999
aF19799.330999999998
aF19809.365000000002
aF19819.398000000001
aF19829.431
aF19839.465
aF19849.498
aF19859.531999999999
aF19869.564999999999
aF19879.598999999998
aF19889.632000000001
aF19899.666000000001
aF19909.699000000001
aF19919.732
aF19929.766
aF19939.798999999999
aF19949.832999999999
aF19959.866000000002
aF19969.900000000001
aF19979.933000000001
aF19989.967000000001
aF20000.0
aF20016.722000000002
aF20033.445
aF20050.167000000001
aF20066.889999999999
aF20083.612000000001
aF20100.333999999999
aF20117.057000000001
aF20133.778999999999
aF20150.502
aF20167.223999999998
aF20183.946
aF20200.669000000002
aF20217.391
aF20234.114000000001
aF20250.835999999999
aF20267.559000000001
aF20284.280999999999
aF20301.003000000001
aF20317.725999999999
aF20334.448
aF20351.170999999998
aF20367.893
aF20384.615000000002
aF20401.338
aF20418.060000000001
aF20434.782999999999
aF20451.505000000001
aF20468.226999999999
aF20484.950000000001
aF20501.671999999999
aF20518.395
aF20535.116999999998
aF20551.839
aF20568.562000000002
aF20585.284
aF20602.007000000001
aF20618.728999999999
aF20635.452000000001
aF20652.173999999999
aF20668.896000000001
aF20685.618999999999
aF20702.341
aF20719.063999999998
aF20735.786
aF20752.508000000002
aF20769.231
aF20785.953000000001
aF20802.675999999999
aF20819.398000000001
aF20836.119999999999
aF20852.843000000001
aF20869.564999999999
aF20886.288
aF20903.009999999998
aF20919.732
aF20936.455000000002
aF20953.177
aF20969.900000000001
aF20986.621999999999
aF21003.344000000001
aF21020.066999999999
aF21036.789000000001
aF21053.511999999999
aF21070.234
aF21086.956999999999
aF21103.679
aF21120.401000000002
aF21137.124
aF21153.846000000001
aF21170.569
aF21187.291000000001
aF21204.012999999999
aF21220.736000000001
aF21237.457999999999
aF21254.181
aF21270.902999999998
aF21287.625
aF21304.348000000002
aF21321.07
aF21337.793000000001
aF21354.514999999999
aF21371.237000000001
aF21387.959999999999
aF21404.682000000001
aF21421.404999999999
aF21438.127
aF21454.848999999998
aF21471.572
aF21488.294000000002
aF21505.017
aF21521.739000000001
aF21538.462
aF21555.184000000001
aF21571.905999999999
aF21588.629000000001
aF21605.350999999999
aF21622.074000000001
aF21638.795999999998
aF21655.518
aF21672.241000000002
aF21688.963
aF21705.686000000002
aF21722.407999999999
aF21739.130000000001
aF21755.852999999999
aF21772.575000000001
aF21789.297999999999
aF21806.02
aF21822.741999999998
aF21839.465
aF21856.187000000002
aF21872.91
aF21889.632000000001
aF21906.355
aF21923.077000000001
aF21939.798999999999
aF21956.522000000001
aF21973.243999999999
aF21989.967000000001
aF22006.688999999998
aF22023.411
aF22040.133999999998
aF22056.856
aF22073.579000000002
aF22090.300999999999
aF22107.023000000001
aF22123.745999999999
aF22140.468000000001
aF22157.190999999999
aF22173.913
aF22190.634999999998
aF22207.358
aF22224.080000000002
aF22240.803
aF22257.525000000001
aF22274.246999999999
aF22290.970000000001
aF22307.691999999999
aF22324.415000000001
aF22341.136999999999
aF22357.860000000001
aF22374.581999999999
aF22391.304
aF22408.026999999998
aF22424.749
aF22441.472000000002
aF22458.194
aF22474.916000000001
aF22491.638999999999
aF22508.361000000001
aF22525.083999999999
aF22541.806
aF22558.527999999998
aF22575.251
aF22591.973000000002
aF22608.696
aF22625.418000000001
aF22642.139999999999
aF22658.863000000001
aF22675.584999999999
aF22692.308000000001
aF22709.029999999999
aF22725.753000000001
aF22742.474999999999
aF22759.197
aF22775.919999999998
aF22792.642
aF22809.365000000002
aF22826.087
aF22842.809000000001
aF22859.531999999999
aF22876.254000000001
aF22892.976999999999
aF22909.699000000001
aF22926.420999999998
aF22943.144
aF22959.866000000002
aF22976.589
aF22993.311000000002
aF23010.032999999999
aF23026.756000000001
aF23043.477999999999
aF23060.201000000001
aF23076.922999999999
aF23093.645
aF23110.367999999999
aF23127.09
aF23143.812999999998
aF23160.535
aF23177.258000000002
aF23193.98
aF23210.702000000001
aF23227.424999999999
aF23244.147000000001
aF23260.869999999999
aF23277.592000000001
aF23294.313999999998
aF23311.037
aF23327.758999999998
aF23344.482
aF23361.204000000002
aF23377.925999999999
aF23394.649000000001
aF23411.370999999999
aF23428.094000000001
aF23444.815999999999
aF23461.538
aF23478.260999999999
aF23494.983
aF23511.705999999998
aF23528.428
aF23545.151000000002
aF23561.873
aF23578.595000000001
aF23595.317999999999
aF23612.040000000001
aF23628.762999999999
aF23645.485000000001
aF23662.206999999999
aF23678.93
aF23695.651999999998
aF23712.375
aF23729.097000000002
aF23745.819
aF23762.542000000001
aF23779.263999999999
aF23795.987000000001
aF23812.708999999999
aF23829.431
aF23846.153999999999
aF23862.876
aF23879.598999999998
aF23896.321
aF23913.043000000001
aF23929.766
aF23946.488000000001
aF23963.210999999999
aF23979.933000000001
aF23996.655999999999
aF24013.378000000001
aF24030.099999999999
aF24046.823
aF24063.544999999998
aF24080.268
aF24096.990000000002
aF24113.712
aF24130.435000000001
aF24147.156999999999
aF24163.880000000001
aF24180.601999999999
aF24197.324000000001
aF24214.046999999999
aF24230.769
aF24247.491999999998
aF24264.214
aF24280.936000000002
aF24297.659
aF24314.381000000001
aF24331.103999999999
aF24347.826000000001
aF24364.547999999999
aF24381.271000000001
aF24397.992999999999
aF24414.716
aF24431.437999999998
aF24448.161
aF24464.883000000002
aF24481.605
aF24498.328000000001
aF24515.049999999999
aF24531.773000000001
aF24548.494999999999
aF24565.217000000001
aF24581.939999999999
aF24598.662
aF24615.384999999998
aF24632.107
aF24648.829000000002
aF24665.552
aF24682.274000000001
aF24698.996999999999
aF24715.719000000001
aF24732.440999999999
aF24749.164000000001
aF24765.885999999999
aF24782.609
aF24799.330999999998
aF24816.054
aF24832.776000000002
aF24849.498
aF24866.221000000001
aF24882.942999999999
aF24899.666000000001
aF24916.387999999999
aF24933.110000000001
aF24949.832999999999
aF24966.555
aF24983.277999999998
aF25000.0
asS'f000'
p3589
(lp3590
g4
(F48.047193
F0.020842807000000001
tp3591
Rp3592
ag4
(F48.04712
F0.02081057
tp3593
Rp3594
ag4
(F48.047047999999997
F0.020778332
tp3595
Rp3596
ag4
(F48.046976000000001
F0.020746094999999999
tp3597
Rp3598
ag4
(F48.046903999999998
F0.020713858000000002
tp3599
Rp3600
ag4
(F48.046832000000002
F0.020681621000000001
tp3601
Rp3602
ag4
(F48.046759999999999
F0.020649383
tp3603
Rp3604
ag4
(F48.046686999999999
F0.020617145999999999
tp3605
Rp3606
ag4
(F48.046615000000003
F0.020585002000000002
tp3607
Rp3608
ag4
(F48.046543
F0.020553054000000001
tp3609
Rp3610
ag4
(F48.046470999999997
F0.020521106000000001
tp3611
Rp3612
ag4
(F48.046399000000001
F0.020489158
tp3613
Rp3614
ag4
(F48.046326999999998
F0.02045721
tp3615
Rp3616
ag4
(F48.046253999999998
F0.020425262
tp3617
Rp3618
ag4
(F48.046183999999997
F0.020394644999999999
tp3619
Rp3620
ag4
(F48.046112999999998
F0.020364052000000001
tp3621
Rp3622
ag4
(F48.046042
F0.020333457999999999
tp3623
Rp3624
ag4
(F48.045971999999999
F0.020302865
tp3625
Rp3626
ag4
(F48.045901000000001
F0.020272272000000001
tp3627
Rp3628
ag4
(F48.045830000000002
F0.020241677999999999
tp3629
Rp3630
ag4
(F48.045757999999999
F0.020211085
tp3631
Rp3632
ag4
(F48.045687000000001
F0.020180492000000001
tp3633
Rp3634
ag4
(F48.045614999999998
F0.020149897999999999
tp3635
Rp3636
ag4
(F48.045544
F0.020119305000000001
tp3637
Rp3638
ag4
(F48.045473000000001
F0.020088712000000002
tp3639
Rp3640
ag4
(F48.045402000000003
F0.020058118
tp3641
Rp3642
ag4
(F48.045330999999997
F0.020027525000000001
tp3643
Rp3644
ag4
(F48.045259999999999
F0.019996931999999999
tp3645
Rp3646
ag4
(F48.045189999999998
F0.019966338
tp3647
Rp3648
ag4
(F48.045119
F0.019935745000000001
tp3649
Rp3650
ag4
(F48.045048000000001
F0.019905151999999999
tp3651
Rp3652
ag4
(F48.044975999999998
F0.019874558000000001
tp3653
Rp3654
ag4
(F48.044905
F0.019843965000000002
tp3655
Rp3656
ag4
(F48.044832999999997
F0.019813371999999999
tp3657
Rp3658
ag4
(F48.044761999999999
F0.019782778000000001
tp3659
Rp3660
ag4
(F48.044691
F0.019752722
tp3661
Rp3662
ag4
(F48.044620999999999
F0.019722987000000001
tp3663
Rp3664
ag4
(F48.044550999999998
F0.019693252000000001
tp3665
Rp3666
ag4
(F48.044480999999998
F0.019663516999999998
tp3667
Rp3668
ag4
(F48.044410999999997
F0.019633781999999999
tp3669
Rp3670
ag4
(F48.044341000000003
F0.019604257999999999
tp3671
Rp3672
ag4
(F48.044271000000002
F0.019575261
tp3673
Rp3674
ag4
(F48.044201000000001
F0.019546263000000001
tp3675
Rp3676
ag4
(F48.044131
F0.019517264999999999
tp3677
Rp3678
ag4
(F48.044060999999999
F0.019488268
tp3679
Rp3680
ag4
(F48.043990999999998
F0.019459270000000001
tp3681
Rp3682
ag4
(F48.043920999999997
F0.019430273000000001
tp3683
Rp3684
ag4
(F48.043850999999997
F0.019401274999999999
tp3685
Rp3686
ag4
(F48.043781000000003
F0.019372278
tp3687
Rp3688
ag4
(F48.043711000000002
F0.019343281
tp3689
Rp3690
ag4
(F48.043641000000001
F0.019314283000000002
tp3691
Rp3692
ag4
(F48.043571
F0.019285285999999999
tp3693
Rp3694
ag4
(F48.043500999999999
F0.019256288
tp3695
Rp3696
ag4
(F48.043430999999998
F0.019227291000000001
tp3697
Rp3698
ag4
(F48.043360999999997
F0.019198293000000002
tp3699
Rp3700
ag4
(F48.043291000000004
F0.019169294999999999
tp3701
Rp3702
ag4
(F48.043221000000003
F0.019140298
tp3703
Rp3704
ag4
(F48.043151000000002
F0.019111300000000001
tp3705
Rp3706
ag4
(F48.043081000000001
F0.019082302999999998
tp3707
Rp3708
ag4
(F48.043011
F0.019053305999999999
tp3709
Rp3710
ag4
(F48.042940999999999
F0.019024308
tp3711
Rp3712
ag4
(F48.042870999999998
F0.018995311000000001
tp3713
Rp3714
ag4
(F48.042803999999997
F0.018967445999999999
tp3715
Rp3716
ag4
(F48.042738
F0.018939667
tp3717
Rp3718
ag4
(F48.042670999999999
F0.018911889000000001
tp3719
Rp3720
ag4
(F48.042605000000002
F0.018884109999999999
tp3721
Rp3722
ag4
(F48.042538
F0.018856332
tp3723
Rp3724
ag4
(F48.042471999999997
F0.018828708999999999
tp3725
Rp3726
ag4
(F48.042406999999997
F0.018801195
tp3727
Rp3728
ag4
(F48.042341
F0.018773681
tp3729
Rp3730
ag4
(F48.042274999999997
F0.018746167000000001
tp3731
Rp3732
ag4
(F48.042209
F0.018718654000000001
tp3733
Rp3734
ag4
(F48.042144
F0.018691138999999999
tp3735
Rp3736
ag4
(F48.042077999999997
F0.018663625
tp3737
Rp3738
ag4
(F48.042012
F0.018636111
tp3739
Rp3740
ag4
(F48.041946000000003
F0.018608596000000002
tp3741
Rp3742
ag4
(F48.041880999999997
F0.018581081999999999
tp3743
Rp3744
ag4
(F48.041815
F0.018553567999999999
tp3745
Rp3746
ag4
(F48.041749000000003
F0.018526054
tp3747
Rp3748
ag4
(F48.041682999999999
F0.018498539000000001
tp3749
Rp3750
ag4
(F48.041618
F0.018471024999999999
tp3751
Rp3752
ag4
(F48.041552000000003
F0.018443510999999999
tp3753
Rp3754
ag4
(F48.041485999999999
F0.018415996
tp3755
Rp3756
ag4
(F48.041421
F0.018388508000000001
tp3757
Rp3758
ag4
(F48.041356
F0.018361039999999999
tp3759
Rp3760
ag4
(F48.041291000000001
F0.018333571999999999
tp3761
Rp3762
ag4
(F48.041226000000002
F0.018306103000000001
tp3763
Rp3764
ag4
(F48.041161000000002
F0.018278635000000001
tp3765
Rp3766
ag4
(F48.041097000000001
F0.018251487
tp3767
Rp3768
ag4
(F48.041034000000003
F0.018225399
tp3769
Rp3770
ag4
(F48.040971999999996
F0.01819931
tp3771
Rp3772
ag4
(F48.040909999999997
F0.018173221999999999
tp3773
Rp3774
ag4
(F48.040847999999997
F0.018147132999999999
tp3775
Rp3776
ag4
(F48.040785999999997
F0.018121043999999999
tp3777
Rp3778
ag4
(F48.040723999999997
F0.018094955999999999
tp3779
Rp3780
ag4
(F48.040663000000002
F0.018068866999999999
tp3781
Rp3782
ag4
(F48.040601000000002
F0.018042778999999998
tp3783
Rp3784
ag4
(F48.04054
F0.018016689999999998
tp3785
Rp3786
ag4
(F48.040478
F0.017990602000000001
tp3787
Rp3788
ag4
(F48.040416999999998
F0.017964513000000001
tp3789
Rp3790
ag4
(F48.040356000000003
F0.017938425000000001
tp3791
Rp3792
ag4
(F48.040294000000003
F0.017912337
tp3793
Rp3794
ag4
(F48.040233000000001
F0.017886249
tp3795
Rp3796
ag4
(F48.040171000000001
F0.017860160999999999
tp3797
Rp3798
ag4
(F48.040109999999999
F0.017834071999999999
tp3799
Rp3800
ag4
(F48.040047999999999
F0.017807983999999999
tp3801
Rp3802
ag4
(F48.039987000000004
F0.017781894999999999
tp3803
Rp3804
ag4
(F48.039924999999997
F0.017755806999999998
tp3805
Rp3806
ag4
(F48.039864000000001
F0.017729717999999998
tp3807
Rp3808
ag4
(F48.039802999999999
F0.017703630000000001
tp3809
Rp3810
ag4
(F48.039740999999999
F0.017677735
tp3811
Rp3812
ag4
(F48.039679999999997
F0.017651867000000002
tp3813
Rp3814
ag4
(F48.039617999999997
F0.017625999999999999
tp3815
Rp3816
ag4
(F48.039557000000002
F0.017600132000000001
tp3817
Rp3818
ag4
(F48.039495000000002
F0.017574264999999999
tp3819
Rp3820
ag4
(F48.039434
F0.017549001000000002
tp3821
Rp3822
ag4
(F48.039374000000002
F0.01752426
tp3823
Rp3824
ag4
(F48.039313
F0.017499519000000002
tp3825
Rp3826
ag4
(F48.039251999999998
F0.017474778
tp3827
Rp3828
ag4
(F48.039191000000002
F0.017450038000000001
tp3829
Rp3830
ag4
(F48.039130999999998
F0.017425296999999999
tp3831
Rp3832
ag4
(F48.039070000000002
F0.017400556000000001
tp3833
Rp3834
ag4
(F48.039009
F0.017375814999999999
tp3835
Rp3836
ag4
(F48.038947999999998
F0.017351074000000001
tp3837
Rp3838
ag4
(F48.038888
F0.017326332999999999
tp3839
Rp3840
ag4
(F48.038826999999998
F0.017301592000000001
tp3841
Rp3842
ag4
(F48.038767
F0.017276850999999999
tp3843
Rp3844
ag4
(F48.038707000000002
F0.017252111000000001
tp3845
Rp3846
ag4
(F48.038646999999997
F0.017227369999999999
tp3847
Rp3848
ag4
(F48.038587
F0.01720263
tp3849
Rp3850
ag4
(F48.038527000000002
F0.017177888999999998
tp3851
Rp3852
ag4
(F48.038466
F0.017153148
tp3853
Rp3854
ag4
(F48.038406000000002
F0.017128408000000001
tp3855
Rp3856
ag4
(F48.038345
F0.017103666999999999
tp3857
Rp3858
ag4
(F48.038283999999997
F0.017078926000000001
tp3859
Rp3860
ag4
(F48.038224
F0.017054184999999999
tp3861
Rp3862
ag4
(F48.038162999999997
F0.017029493999999999
tp3863
Rp3864
ag4
(F48.038103
F0.017005032999999999
tp3865
Rp3866
ag4
(F48.038043000000002
F0.016980571999999999
tp3867
Rp3868
ag4
(F48.037982999999997
F0.016956111999999999
tp3869
Rp3870
ag4
(F48.037922999999999
F0.016931650999999999
tp3871
Rp3872
ag4
(F48.037863000000002
F0.016907189999999999
tp3873
Rp3874
ag4
(F48.037806000000003
F0.016883572999999999
tp3875
Rp3876
ag4
(F48.037748999999998
F0.016860117000000001
tp3877
Rp3878
ag4
(F48.037692999999997
F0.016836660999999999
tp3879
Rp3880
ag4
(F48.037636999999997
F0.016813206000000001
tp3881
Rp3882
ag4
(F48.037579999999998
F0.016789749999999999
tp3883
Rp3884
ag4
(F48.037523999999998
F0.016766294000000001
tp3885
Rp3886
ag4
(F48.037466999999999
F0.016742837999999999
tp3887
Rp3888
ag4
(F48.037410999999999
F0.016719383000000001
tp3889
Rp3890
ag4
(F48.037354000000001
F0.016695926999999999
tp3891
Rp3892
ag4
(F48.037298
F0.016672471000000001
tp3893
Rp3894
ag4
(F48.037241000000002
F0.016649015999999999
tp3895
Rp3896
ag4
(F48.037184000000003
F0.016625560000000001
tp3897
Rp3898
ag4
(F48.037126999999998
F0.016602103999999999
tp3899
Rp3900
ag4
(F48.03707
F0.016578648000000001
tp3901
Rp3902
ag4
(F48.037013000000002
F0.016555192999999999
tp3903
Rp3904
ag4
(F48.036956000000004
F0.016531737000000001
tp3905
Rp3906
ag4
(F48.036898999999998
F0.016508281
tp3907
Rp3908
ag4
(F48.036842999999998
F0.016484826000000001
tp3909
Rp3910
ag4
(F48.036785999999999
F0.016461369999999999
tp3911
Rp3912
ag4
(F48.036729999999999
F0.016437914000000001
tp3913
Rp3914
ag4
(F48.036673
F0.016414458
tp3915
Rp3916
ag4
(F48.036617
F0.016391116000000001
tp3917
Rp3918
ag4
(F48.036560000000001
F0.016367896
tp3919
Rp3920
ag4
(F48.036504000000001
F0.016344675999999999
tp3921
Rp3922
ag4
(F48.036447000000003
F0.016321454999999999
tp3923
Rp3924
ag4
(F48.036391000000002
F0.016298235000000001
tp3925
Rp3926
ag4
(F48.036335000000001
F0.016275156999999998
tp3927
Rp3928
ag4
(F48.036279
F0.016252928
tp3929
Rp3930
ag4
(F48.036223
F0.016230700000000001
tp3931
Rp3932
ag4
(F48.036166999999999
F0.016208470999999999
tp3933
Rp3934
ag4
(F48.036112000000003
F0.016186242999999999
tp3935
Rp3936
ag4
(F48.036056000000002
F0.016164014000000001
tp3937
Rp3938
ag4
(F48.036000000000001
F0.016141786000000002
tp3939
Rp3940
ag4
(F48.035944999999998
F0.016119557
tp3941
Rp3942
ag4
(F48.035888999999997
F0.016097329
tp3943
Rp3944
ag4
(F48.035832999999997
F0.016075101000000001
tp3945
Rp3946
ag4
(F48.035777000000003
F0.016052871999999999
tp3947
Rp3948
ag4
(F48.035722
F0.016030644
tp3949
Rp3950
ag4
(F48.035665999999999
F0.016008415000000002
tp3951
Rp3952
ag4
(F48.035609999999998
F0.015986186999999999
tp3953
Rp3954
ag4
(F48.035553999999998
F0.015963958
tp3955
Rp3956
ag4
(F48.035499000000002
F0.015941730000000001
tp3957
Rp3958
ag4
(F48.035443000000001
F0.015919500999999999
tp3959
Rp3960
ag4
(F48.035387
F0.015897273
tp3961
Rp3962
ag4
(F48.035331999999997
F0.015875044000000001
tp3963
Rp3964
ag4
(F48.035276000000003
F0.015852814999999999
tp3965
Rp3966
ag4
(F48.035220000000002
F0.015830586000000001
tp3967
Rp3968
ag4
(F48.035164000000002
F0.015808356999999999
tp3969
Rp3970
ag4
(F48.035108999999999
F0.015786206000000001
tp3971
Rp3972
ag4
(F48.035052999999998
F0.015764075999999998
tp3973
Rp3974
ag4
(F48.034996999999997
F0.015741945
tp3975
Rp3976
ag4
(F48.034941000000003
F0.015719815000000002
tp3977
Rp3978
ag4
(F48.034886
F0.015697684
tp3979
Rp3980
ag4
(F48.034832000000002
F0.015676030000000001
tp3981
Rp3982
ag4
(F48.034779999999998
F0.015654965999999999
tp3983
Rp3984
ag4
(F48.034728999999999
F0.015633902000000002
tp3985
Rp3986
ag4
(F48.034678
F0.015612839
tp3987
Rp3988
ag4
(F48.034626000000003
F0.015591775
tp3989
Rp3990
ag4
(F48.034574999999997
F0.015570710999999999
tp3991
Rp3992
ag4
(F48.034522000000003
F0.015549647
tp3993
Rp3994
ag4
(F48.034469999999999
F0.015528584
tp3995
Rp3996
ag4
(F48.034418000000002
F0.01550752
tp3997
Rp3998
ag4
(F48.034365999999999
F0.015486455999999999
tp3999
Rp4000
ag4
(F48.034314000000002
F0.015465392
tp4001
Rp4002
ag4
(F48.034261999999998
F0.015444328
tp4003
Rp4004
ag4
(F48.034210000000002
F0.015423265
tp4005
Rp4006
ag4
(F48.034157
F0.015402201000000001
tp4007
Rp4008
ag4
(F48.034104999999997
F0.015381137
tp4009
Rp4010
ag4
(F48.034053
F0.015360073
tp4011
Rp4012
ag4
(F48.034001000000004
F0.015339009000000001
tp4013
Rp4014
ag4
(F48.033949999999997
F0.015317946000000001
tp4015
Rp4016
ag4
(F48.033898000000001
F0.015296881999999999
tp4017
Rp4018
ag4
(F48.033847000000002
F0.015275818
tp4019
Rp4020
ag4
(F48.033794999999998
F0.015254754000000001
tp4021
Rp4022
ag4
(F48.033743999999999
F0.015233691000000001
tp4023
Rp4024
ag4
(F48.033692000000002
F0.015212626999999999
tp4025
Rp4026
ag4
(F48.033639999999998
F0.015191563
tp4027
Rp4028
ag4
(F48.033588000000002
F0.0151705
tp4029
Rp4030
ag4
(F48.033535000000001
F0.015149436
tp4031
Rp4032
ag4
(F48.033482999999997
F0.015128371999999999
tp4033
Rp4034
ag4
(F48.033431999999998
F0.015108040999999999
tp4035
Rp4036
ag4
(F48.033380000000001
F0.015087952999999999
tp4037
Rp4038
ag4
(F48.033329000000002
F0.015067865999999999
tp4039
Rp4040
ag4
(F48.033276999999998
F0.015047778
tp4041
Rp4042
ag4
(F48.033225999999999
F0.015027690999999999
tp4043
Rp4044
ag4
(F48.033175
F0.015007652
tp4045
Rp4046
ag4
(F48.033124000000001
F0.014987683
tp4047
Rp4048
ag4
(F48.033073000000002
F0.014967714
tp4049
Rp4050
ag4
(F48.033022000000003
F0.014947745
tp4051
Rp4052
ag4
(F48.032972000000001
F0.014927776
tp4053
Rp4054
ag4
(F48.032921000000002
F0.014907807
tp4055
Rp4056
ag4
(F48.032870000000003
F0.014887836999999999
tp4057
Rp4058
ag4
(F48.032817999999999
F0.014867867999999999
tp4059
Rp4060
ag4
(F48.032767
F0.014847898999999999
tp4061
Rp4062
ag4
(F48.032715000000003
F0.01482793
tp4063
Rp4064
ag4
(F48.032663999999997
F0.01480796
tp4065
Rp4066
ag4
(F48.032612999999998
F0.014787991
tp4067
Rp4068
ag4
(F48.032561999999999
F0.014768022
tp4069
Rp4070
ag4
(F48.032511
F0.014748053000000001
tp4071
Rp4072
ag4
(F48.032460999999998
F0.014728084000000001
tp4073
Rp4074
ag4
(F48.032409999999999
F0.014708115000000001
tp4075
Rp4076
ag4
(F48.032359
F0.014688145999999999
tp4077
Rp4078
ag4
(F48.032308
F0.014668176999999999
tp4079
Rp4080
ag4
(F48.032255999999997
F0.014648207
tp4081
Rp4082
ag4
(F48.032204999999998
F0.014628238
tp4083
Rp4084
ag4
(F48.032153000000001
F0.014608269
tp4085
Rp4086
ag4
(F48.032102000000002
F0.014588334
tp4087
Rp4088
ag4
(F48.032052999999998
F0.014569011999999999
tp4089
Rp4090
ag4
(F48.032004999999998
F0.014549690000000001
tp4091
Rp4092
ag4
(F48.031956000000001
F0.014530368
tp4093
Rp4094
ag4
(F48.031908000000001
F0.014511046
tp4095
Rp4096
ag4
(F48.031858999999997
F0.014491723999999999
tp4097
Rp4098
ag4
(F48.031810999999998
F0.014472687999999999
tp4099
Rp4100
ag4
(F48.031762999999998
F0.014453766
tp4101
Rp4102
ag4
(F48.031714999999998
F0.014434844
tp4103
Rp4104
ag4
(F48.031666999999999
F0.014415921999999999
tp4105
Rp4106
ag4
(F48.031618999999999
F0.014397
tp4107
Rp4108
ag4
(F48.031571999999997
F0.014378078000000001
tp4109
Rp4110
ag4
(F48.031523999999997
F0.014359156
tp4111
Rp4112
ag4
(F48.031475999999998
F0.014340234
tp4113
Rp4114
ag4
(F48.031427999999998
F0.014321311999999999
tp4115
Rp4116
ag4
(F48.031379999999999
F0.01430239
tp4117
Rp4118
ag4
(F48.031331999999999
F0.014283468000000001
tp4119
Rp4120
ag4
(F48.031284999999997
F0.014264545999999999
tp4121
Rp4122
ag4
(F48.031238000000002
F0.014245624
tp4123
Rp4124
ag4
(F48.031191
F0.014226702000000001
tp4125
Rp4126
ag4
(F48.031143999999998
F0.01420778
tp4127
Rp4128
ag4
(F48.031095999999998
F0.014188858
tp4129
Rp4130
ag4
(F48.031049000000003
F0.014169935999999999
tp4131
Rp4132
ag4
(F48.031001000000003
F0.014151014
tp4133
Rp4134
ag4
(F48.030952999999997
F0.014132093
tp4135
Rp4136
ag4
(F48.030904999999997
F0.014113171000000001
tp4137
Rp4138
ag4
(F48.030856999999997
F0.014094249
tp4139
Rp4140
ag4
(F48.030810000000002
F0.014075417999999999
tp4141
Rp4142
ag4
(F48.030763
F0.014056753999999999
tp4143
Rp4144
ag4
(F48.030715000000001
F0.014038089
tp4145
Rp4146
ag4
(F48.030667999999999
F0.014019424000000001
tp4147
Rp4148
ag4
(F48.030620999999996
F0.014000759999999999
tp4149
Rp4150
ag4
(F48.030574000000001
F0.013982108
tp4151
Rp4152
ag4
(F48.030527999999997
F0.013964183999999999
tp4153
Rp4154
ag4
(F48.030481000000002
F0.01394626
tp4155
Rp4156
ag4
(F48.030434999999997
F0.013928335
tp4157
Rp4158
ag4
(F48.030388000000002
F0.013910410999999999
tp4159
Rp4160
ag4
(F48.030341999999997
F0.013892487
tp4161
Rp4162
ag4
(F48.030295000000002
F0.013874562999999999
tp4163
Rp4164
ag4
(F48.030248
F0.013856637999999999
tp4165
Rp4166
ag4
(F48.030200999999998
F0.013838714
tp4167
Rp4168
ag4
(F48.030152999999999
F0.013820789
tp4169
Rp4170
ag4
(F48.030106000000004
F0.013802864999999999
tp4171
Rp4172
ag4
(F48.030059000000001
F0.013784940000000001
tp4173
Rp4174
ag4
(F48.030012999999997
F0.013767016
tp4175
Rp4176
ag4
(F48.029966000000002
F0.013749091999999999
tp4177
Rp4178
ag4
(F48.029919999999997
F0.013731168
tp4179
Rp4180
ag4
(F48.029874
F0.013713243
tp4181
Rp4182
ag4
(F48.029826999999997
F0.013695318999999999
tp4183
Rp4184
ag4
(F48.029777000000003
F0.013676114
tp4185
Rp4186
ag4
(F48.029725999999997
F0.01365691
tp4187
Rp4188
ag4
(F48.029676000000002
F0.013637705
tp4189
Rp4190
ag4
(F48.029625000000003
F0.0136185
tp4191
Rp4192
ag4
(F48.029575000000001
F0.013599295000000001
tp4193
Rp4194
ag4
(F48.029525
F0.013580091000000001
tp4195
Rp4196
ag4
(F48.029474999999998
F0.013560885999999999
tp4197
Rp4198
ag4
(F48.029425000000003
F0.013541681
tp4199
Rp4200
ag4
(F48.029375000000002
F0.013522476
tp4201
Rp4202
ag4
(F48.029325999999998
F0.013503299
tp4203
Rp4204
ag4
(F48.029277999999998
F0.013484912
tp4205
Rp4206
ag4
(F48.029231000000003
F0.013466525999999999
tp4207
Rp4208
ag4
(F48.029183000000003
F0.013448139
tp4209
Rp4210
ag4
(F48.029136000000001
F0.013429752999999999
tp4211
Rp4212
ag4
(F48.029088999999999
F0.013411375999999999
tp4213
Rp4214
ag4
(F48.029043000000001
F0.013393179
tp4215
Rp4216
ag4
(F48.028996999999997
F0.013374980999999999
tp4217
Rp4218
ag4
(F48.028950999999999
F0.013356784
tp4219
Rp4220
ag4
(F48.028905000000002
F0.013338587000000001
tp4221
Rp4222
ag4
(F48.028858999999997
F0.01332039
tp4223
Rp4224
ag4
(F48.028812000000002
F0.013302191999999999
tp4225
Rp4226
ag4
(F48.028765
F0.013283995
tp4227
Rp4228
ag4
(F48.028719000000002
F0.013265796999999999
tp4229
Rp4230
ag4
(F48.028672
F0.0132476
tp4231
Rp4232
ag4
(F48.028624999999998
F0.013229401999999999
tp4233
Rp4234
ag4
(F48.028579000000001
F0.013211205
tp4235
Rp4236
ag4
(F48.028531999999998
F0.013193008000000001
tp4237
Rp4238
ag4
(F48.028485000000003
F0.013174811
tp4239
Rp4240
ag4
(F48.028438999999999
F0.013156614000000001
tp4241
Rp4242
ag4
(F48.028391999999997
F0.013138416
tp4243
Rp4244
ag4
(F48.028345999999999
F0.013120219000000001
tp4245
Rp4246
ag4
(F48.028300000000002
F0.013102022
tp4247
Rp4248
ag4
(F48.028253999999997
F0.013083825
tp4249
Rp4250
ag4
(F48.028207999999999
F0.013065627
tp4251
Rp4252
ag4
(F48.028162000000002
F0.013047461999999999
tp4253
Rp4254
ag4
(F48.028115999999997
F0.013029535
tp4255
Rp4256
ag4
(F48.028069000000002
F0.013011607999999999
tp4257
Rp4258
ag4
(F48.028022
F0.012993681999999999
tp4259
Rp4260
ag4
(F48.027974999999998
F0.012975755
tp4261
Rp4262
ag4
(F48.027929
F0.012957922
tp4263
Rp4264
ag4
(F48.027884
F0.012940699
tp4265
Rp4266
ag4
(F48.027839
F0.012923476
tp4267
Rp4268
ag4
(F48.027794
F0.012906252
tp4269
Rp4270
ag4
(F48.027748000000003
F0.012889029
tp4271
Rp4272
ag4
(F48.027703000000002
F0.012871806
tp4273
Rp4274
ag4
(F48.027656999999998
F0.012854582
tp4275
Rp4276
ag4
(F48.027611
F0.012837359
tp4277
Rp4278
ag4
(F48.027565000000003
F0.012820135
tp4279
Rp4280
ag4
(F48.027518999999998
F0.012802912
tp4281
Rp4282
ag4
(F48.027473999999998
F0.012785688999999999
tp4283
Rp4284
ag4
(F48.027428
F0.012768465
tp4285
Rp4286
ag4
(F48.027383
F0.012751241999999999
tp4287
Rp4288
ag4
(F48.027338
F0.012734018
tp4289
Rp4290
ag4
(F48.027293
F0.012716794999999999
tp4291
Rp4292
ag4
(F48.027248
F0.012699571
tp4293
Rp4294
ag4
(F48.027202000000003
F0.012682348
tp4295
Rp4296
ag4
(F48.027155999999998
F0.012665124
tp4297
Rp4298
ag4
(F48.02711
F0.012647901
tp4299
Rp4300
ag4
(F48.027064000000003
F0.012630677999999999
tp4301
Rp4302
ag4
(F48.027017999999998
F0.012613454
tp4303
Rp4304
ag4
(F48.026972000000001
F0.012596230999999999
tp4305
Rp4306
ag4
(F48.026926000000003
F0.012579007
tp4307
Rp4308
ag4
(F48.026879999999998
F0.012561783999999999
tp4309
Rp4310
ag4
(F48.026834000000001
F0.012544560999999999
tp4311
Rp4312
ag4
(F48.026789000000001
F0.012527465
tp4313
Rp4314
ag4
(F48.026746000000003
F0.012510828
tp4315
Rp4316
ag4
(F48.026702999999998
F0.012494191
tp4317
Rp4318
ag4
(F48.02666
F0.012477555
tp4319
Rp4320
ag4
(F48.026617000000002
F0.012460918
tp4321
Rp4322
ag4
(F48.026575000000001
F0.012444355000000001
tp4323
Rp4324
ag4
(F48.026533000000001
F0.012428032
tp4325
Rp4326
ag4
(F48.026491
F0.012411708
tp4327
Rp4328
ag4
(F48.026448000000002
F0.012395385
tp4329
Rp4330
ag4
(F48.026406000000001
F0.012379062
tp4331
Rp4332
ag4
(F48.026364000000001
F0.012362738
tp4333
Rp4334
ag4
(F48.026321000000003
F0.012346414999999999
tp4335
Rp4336
ag4
(F48.026277999999998
F0.012330092000000001
tp4337
Rp4338
ag4
(F48.026235
F0.012313769
tp4339
Rp4340
ag4
(F48.026192999999999
F0.012297446
tp4341
Rp4342
ag4
(F48.026150000000001
F0.012281123
tp4343
Rp4344
ag4
(F48.026108000000001
F0.012264799
tp4345
Rp4346
ag4
(F48.026066
F0.012248475999999999
tp4347
Rp4348
ag4
(F48.026024
F0.012232153000000001
tp4349
Rp4350
ag4
(F48.025981999999999
F0.012215828999999999
tp4351
Rp4352
ag4
(F48.025939000000001
F0.012199506000000001
tp4353
Rp4354
ag4
(F48.025897000000001
F0.012183183
tp4355
Rp4356
ag4
(F48.025855
F0.01216686
tp4357
Rp4358
ag4
(F48.025812999999999
F0.012150536999999999
tp4359
Rp4360
ag4
(F48.025770999999999
F0.012134214000000001
tp4361
Rp4362
ag4
(F48.025728999999998
F0.012117891
tp4363
Rp4364
ag4
(F48.025686999999998
F0.012101567000000001
tp4365
Rp4366
ag4
(F48.025644999999997
F0.012085244
tp4367
Rp4368
ag4
(F48.025602999999997
F0.012068921
tp4369
Rp4370
ag4
(F48.025561000000003
F0.012052597
tp4371
Rp4372
ag4
(F48.025519000000003
F0.012036534
tp4373
Rp4374
ag4
(F48.025477000000002
F0.012021031999999999
tp4375
Rp4376
ag4
(F48.025435999999999
F0.012005528999999999
tp4377
Rp4378
ag4
(F48.025395000000003
F0.011990027
tp4379
Rp4380
ag4
(F48.025353000000003
F0.011974525
tp4381
Rp4382
ag4
(F48.025312
F0.011959040000000001
tp4383
Rp4384
ag4
(F48.025270999999996
F0.011943591999999999
tp4385
Rp4386
ag4
(F48.025229000000003
F0.011928144
tp4387
Rp4388
ag4
(F48.025188
F0.011912694999999999
tp4389
Rp4390
ag4
(F48.025146999999997
F0.011897247
tp4391
Rp4392
ag4
(F48.025105000000003
F0.011881799
tp4393
Rp4394
ag4
(F48.025064
F0.011866351000000001
tp4395
Rp4396
ag4
(F48.025022999999997
F0.011850902999999999
tp4397
Rp4398
ag4
(F48.024980999999997
F0.011835455
tp4399
Rp4400
ag4
(F48.024940000000001
F0.011820005999999999
tp4401
Rp4402
ag4
(F48.024898999999998
F0.011804558
tp4403
Rp4404
ag4
(F48.024856999999997
F0.01178911
tp4405
Rp4406
ag4
(F48.024816000000001
F0.011773662000000001
tp4407
Rp4408
ag4
(F48.024774999999998
F0.011758213999999999
tp4409
Rp4410
ag4
(F48.024732999999998
F0.011742766
tp4411
Rp4412
ag4
(F48.024692000000002
F0.011727318
tp4413
Rp4414
ag4
(F48.024650000000001
F0.011711869
tp4415
Rp4416
ag4
(F48.024607000000003
F0.011696421
tp4417
Rp4418
ag4
(F48.024565000000003
F0.011680973000000001
tp4419
Rp4420
ag4
(F48.024523000000002
F0.011665524
tp4421
Rp4422
ag4
(F48.024481000000002
F0.011650119
tp4423
Rp4424
ag4
(F48.024439999999998
F0.011634778
tp4425
Rp4426
ag4
(F48.024399000000003
F0.011619437
tp4427
Rp4428
ag4
(F48.024357000000002
F0.011604095
tp4429
Rp4430
ag4
(F48.024315999999999
F0.011588754
tp4431
Rp4432
ag4
(F48.024275000000003
F0.011573711
tp4433
Rp4434
ag4
(F48.024234999999997
F0.011559086
tp4435
Rp4436
ag4
(F48.024194000000001
F0.011544459999999999
tp4437
Rp4438
ag4
(F48.024152999999998
F0.011529835
tp4439
Rp4440
ag4
(F48.024113
F0.011515209
tp4441
Rp4442
ag4
(F48.024071999999997
F0.011500583999999999
tp4443
Rp4444
ag4
(F48.024031999999998
F0.011485957999999999
tp4445
Rp4446
ag4
(F48.023991000000002
F0.011471333
tp4447
Rp4448
ag4
(F48.023950999999997
F0.011456707
tp4449
Rp4450
ag4
(F48.023910000000001
F0.011442081
tp4451
Rp4452
ag4
(F48.023868999999998
F0.011427456000000001
tp4453
Rp4454
ag4
(F48.023828999999999
F0.011412830000000001
tp4455
Rp4456
ag4
(F48.023788000000003
F0.011398205
tp4457
Rp4458
ag4
(F48.023747999999998
F0.011383579
tp4459
Rp4460
ag4
(F48.023707000000002
F0.011368954000000001
tp4461
Rp4462
ag4
(F48.023665999999999
F0.011354329
tp4463
Rp4464
ag4
(F48.023625000000003
F0.011339703
tp4465
Rp4466
ag4
(F48.023583000000002
F0.011325078000000001
tp4467
Rp4468
ag4
(F48.023541999999999
F0.011310452
tp4469
Rp4470
ag4
(F48.023501000000003
F0.011295827
tp4471
Rp4472
ag4
(F48.02346
F0.011281200999999999
tp4473
Rp4474
ag4
(F48.023418999999997
F0.011266576
tp4475
Rp4476
ag4
(F48.023378999999998
F0.01125195
tp4477
Rp4478
ag4
(F48.023338000000003
F0.011237324
tp4479
Rp4480
ag4
(F48.023297999999997
F0.011222698999999999
tp4481
Rp4482
ag4
(F48.023257000000001
F0.011208162000000001
tp4483
Rp4484
ag4
(F48.023218
F0.011193714
tp4485
Rp4486
ag4
(F48.023178000000001
F0.011179266
tp4487
Rp4488
ag4
(F48.023138000000003
F0.011164818
tp4489
Rp4490
ag4
(F48.023097999999997
F0.01115037
tp4491
Rp4492
ag4
(F48.023060000000001
F0.011136231999999999
tp4493
Rp4494
ag4
(F48.023021999999997
F0.011122385
tp4495
Rp4496
ag4
(F48.022984999999998
F0.011108537
tp4497
Rp4498
ag4
(F48.022947000000002
F0.011094690000000001
tp4499
Rp4500
ag4
(F48.022910000000003
F0.011080843
tp4501
Rp4502
ag4
(F48.022872
F0.011066996000000001
tp4503
Rp4504
ag4
(F48.022834000000003
F0.011053148
tp4505
Rp4506
ag4
(F48.022796999999997
F0.011039301
tp4507
Rp4508
ag4
(F48.022759000000001
F0.011025452999999999
tp4509
Rp4510
ag4
(F48.022722000000002
F0.011011606
tp4511
Rp4512
ag4
(F48.022683999999998
F0.010997758999999999
tp4513
Rp4514
ag4
(F48.022646999999999
F0.010983911000000001
tp4515
Rp4516
ag4
(F48.022609000000003
F0.010970064
tp4517
Rp4518
ag4
(F48.022571999999997
F0.010956216
tp4519
Rp4520
ag4
(F48.022534
F0.010942369
tp4521
Rp4522
ag4
(F48.022497000000001
F0.010928521
tp4523
Rp4524
ag4
(F48.022458999999998
F0.010914673999999999
tp4525
Rp4526
ag4
(F48.022421999999999
F0.010900827
tp4527
Rp4528
ag4
(F48.022384000000002
F0.010886979999999999
tp4529
Rp4530
ag4
(F48.022347000000003
F0.010873133
tp4531
Rp4532
ag4
(F48.022309
F0.010859285
tp4533
Rp4534
ag4
(F48.022272000000001
F0.010845438000000001
tp4535
Rp4536
ag4
(F48.022233999999997
F0.01083159
tp4537
Rp4538
ag4
(F48.022196999999998
F0.010817742999999999
tp4539
Rp4540
ag4
(F48.022159000000002
F0.010803895000000001
tp4541
Rp4542
ag4
(F48.022122000000003
F0.010790152000000001
tp4543
Rp4544
ag4
(F48.022084
F0.010776477
tp4545
Rp4546
ag4
(F48.022047000000001
F0.010762802
tp4547
Rp4548
ag4
(F48.022008999999997
F0.010749127000000001
tp4549
Rp4550
ag4
(F48.021971999999998
F0.010735453000000001
tp4551
Rp4552
ag4
(F48.021934999999999
F0.01072213
tp4553
Rp4554
ag4
(F48.021898
F0.010709026999999999
tp4555
Rp4556
ag4
(F48.021861000000001
F0.010695924000000001
tp4557
Rp4558
ag4
(F48.021825
F0.010682821
tp4559
Rp4560
ag4
(F48.021788000000001
F0.010669718
tp4561
Rp4562
ag4
(F48.021751000000002
F0.010656614999999999
tp4563
Rp4564
ag4
(F48.021714000000003
F0.010643512000000001
tp4565
Rp4566
ag4
(F48.021678000000001
F0.010630409
tp4567
Rp4568
ag4
(F48.021641000000002
F0.010617306
tp4569
Rp4570
ag4
(F48.021604000000004
F0.010604203
tp4571
Rp4572
ag4
(F48.021566999999997
F0.010591100000000001
tp4573
Rp4574
ag4
(F48.021529000000001
F0.010577997
tp4575
Rp4576
ag4
(F48.021492000000002
F0.010564894
tp4577
Rp4578
ag4
(F48.021453999999999
F0.010551791
tp4579
Rp4580
ag4
(F48.021417
F0.010538687999999999
tp4581
Rp4582
ag4
(F48.021380000000001
F0.010525585
tp4583
Rp4584
ag4
(F48.021343000000002
F0.010512482
tp4585
Rp4586
ag4
(F48.021306000000003
F0.010499379
tp4587
Rp4588
ag4
(F48.021270000000001
F0.010486275
tp4589
Rp4590
ag4
(F48.021233000000002
F0.010473171999999999
tp4591
Rp4592
ag4
(F48.021196000000003
F0.010460069000000001
tp4593
Rp4594
ag4
(F48.021158999999997
F0.010446966
tp4595
Rp4596
ag4
(F48.021123000000003
F0.010433863
tp4597
Rp4598
ag4
(F48.021085999999997
F0.010420759999999999
tp4599
Rp4600
ag4
(F48.021048999999998
F0.010407657000000001
tp4601
Rp4602
ag4
(F48.021011999999999
F0.010394621999999999
tp4603
Rp4604
ag4
(F48.020975999999997
F0.010381616
tp4605
Rp4606
ag4
(F48.020938999999998
F0.01036861
tp4607
Rp4608
ag4
(F48.020902
F0.010355605
tp4609
Rp4610
ag4
(F48.020865000000001
F0.010342598999999999
tp4611
Rp4612
ag4
(F48.020831000000001
F0.010330028
tp4613
Rp4614
ag4
(F48.020797000000002
F0.010317631000000001
tp4615
Rp4616
ag4
(F48.020763000000002
F0.010305233
tp4617
Rp4618
ag4
(F48.02073
F0.010292835
tp4619
Rp4620
ag4
(F48.020696000000001
F0.010280437
tp4621
Rp4622
ag4
(F48.020662000000002
F0.010268039
tp4623
Rp4624
ag4
(F48.020629
F0.010255640999999999
tp4625
Rp4626
ag4
(F48.020595
F0.010243243000000001
tp4627
Rp4628
ag4
(F48.020561000000001
F0.010230845000000001
tp4629
Rp4630
ag4
(F48.020527999999999
F0.010218447
tp4631
Rp4632
ag4
(F48.020493999999999
F0.010206049
tp4633
Rp4634
ag4
(F48.02046
F0.010193651999999999
tp4635
Rp4636
ag4
(F48.020426999999998
F0.010181254000000001
tp4637
Rp4638
ag4
(F48.020392999999999
F0.010168856
tp4639
Rp4640
ag4
(F48.020358999999999
F0.010156458
tp4641
Rp4642
ag4
(F48.020325999999997
F0.01014406
tp4643
Rp4644
ag4
(F48.020291999999998
F0.010131663000000001
tp4645
Rp4646
ag4
(F48.020257999999998
F0.010119265000000001
tp4647
Rp4648
ag4
(F48.020225000000003
F0.010106867
tp4649
Rp4650
ag4
(F48.020190999999997
F0.010094469
tp4651
Rp4652
ag4
(F48.020156999999998
F0.010082071
tp4653
Rp4654
ag4
(F48.020122999999998
F0.010069672999999999
tp4655
Rp4656
ag4
(F48.020090000000003
F0.010057274999999999
tp4657
Rp4658
ag4
(F48.020055999999997
F0.010044877000000001
tp4659
Rp4660
ag4
(F48.020021999999997
F0.010032479
tp4661
Rp4662
ag4
(F48.019989000000002
F0.010020081
tp4663
Rp4664
ag4
(F48.019955000000003
F0.010007683
tp4665
Rp4666
ag4
(F48.019920999999997
F0.0099952853000000001
tp4667
Rp4668
ag4
(F48.019888000000002
F0.0099828873999999995
tp4669
Rp4670
ag4
(F48.019854000000002
F0.0099704895000000005
tp4671
Rp4672
ag4
(F48.019821
F0.0099586112000000001
tp4673
Rp4674
ag4
(F48.019787999999998
F0.0099468496999999996
tp4675
Rp4676
ag4
(F48.019755000000004
F0.0099350880999999995
tp4677
Rp4678
ag4
(F48.019722000000002
F0.0099233264999999994
tp4679
Rp4680
ag4
(F48.019689
F0.0099115648999999993
tp4681
Rp4682
ag4
(F48.019655999999998
F0.0098998336999999992
tp4683
Rp4684
ag4
(F48.019623000000003
F0.0098881086000000007
tp4685
Rp4686
ag4
(F48.019590999999998
F0.0098763835000000005
tp4687
Rp4688
ag4
(F48.019558000000004
F0.0098646583000000006
tp4689
Rp4690
ag4
(F48.019525000000002
F0.0098529332000000004
tp4691
Rp4692
ag4
(F48.019491000000002
F0.0098412081000000002
tp4693
Rp4694
ag4
(F48.019457000000003
F0.0098294829000000004
tp4695
Rp4696
ag4
(F48.019424000000001
F0.0098177578000000001
tp4697
Rp4698
ag4
(F48.019390000000001
F0.0098060326999999999
tp4699
Rp4700
ag4
(F48.019356000000002
F0.0097943075000000001
tp4701
Rp4702
ag4
(F48.019323
F0.0097825823999999999
tp4703
Rp4704
ag4
(F48.019291000000003
F0.0097708572999999996
tp4705
Rp4706
ag4
(F48.019258000000001
F0.0097591320999999998
tp4707
Rp4708
ag4
(F48.019224999999999
F0.0097474069999999996
tp4709
Rp4710
ag4
(F48.019191999999997
F0.0097356818999999994
tp4711
Rp4712
ag4
(F48.019159000000002
F0.0097239566999999996
tp4713
Rp4714
ag4
(F48.019126
F0.0097122315999999993
tp4715
Rp4716
ag4
(F48.019092999999998
F0.0097005065000000008
tp4717
Rp4718
ag4
(F48.019060000000003
F0.0096887812999999993
tp4719
Rp4720
ag4
(F48.019027000000001
F0.0096770562000000008
tp4721
Rp4722
ag4
(F48.018993999999999
F0.0096653311000000006
tp4723
Rp4724
ag4
(F48.01896
F0.0096536059000000007
tp4725
Rp4726
ag4
(F48.018926
F0.0096418808000000005
tp4727
Rp4728
ag4
(F48.018892999999998
F0.0096301557000000003
tp4729
Rp4730
ag4
(F48.018858999999999
F0.0096184305000000005
tp4731
Rp4732
ag4
(F48.018827000000002
F0.0096082076999999995
tp4733
Rp4734
ag4
(F48.018794
F0.0095981212999999999
tp4735
Rp4736
ag4
(F48.018762000000002
F0.009588035
tp4737
Rp4738
ag4
(F48.018729999999998
F0.0095779487
tp4739
Rp4740
ag4
(F48.018698000000001
F0.0095678624
tp4741
Rp4742
ag4
(F48.018664999999999
F0.0095585922000000004
tp4743
Rp4744
ag4
(F48.018631999999997
F0.0095493803000000002
tp4745
Rp4746
ag4
(F48.018599000000002
F0.0095401684999999996
tp4747
Rp4748
ag4
(F48.018566
F0.0095309565999999995
tp4749
Rp4750
ag4
(F48.018532999999998
F0.0095217446999999993
tp4751
Rp4752
ag4
(F48.018501000000001
F0.0095125329000000005
tp4753
Rp4754
ag4
(F48.018467999999999
F0.0095033210000000003
tp4755
Rp4756
ag4
(F48.018434999999997
F0.0094941091000000002
tp4757
Rp4758
ag4
(F48.018402000000002
F0.0094848972999999996
tp4759
Rp4760
ag4
(F48.018369
F0.0094756853999999995
tp4761
Rp4762
ag4
(F48.018337000000002
F0.0094664737000000002
tp4763
Rp4764
ag4
(F48.018304999999998
F0.0094572619999999993
tp4765
Rp4766
ag4
(F48.018272000000003
F0.0094480503
tp4767
Rp4768
ag4
(F48.018239999999999
F0.0094388386000000008
tp4769
Rp4770
ag4
(F48.018208000000001
F0.0094296269999999995
tp4771
Rp4772
ag4
(F48.018174999999999
F0.0094204150999999993
tp4773
Rp4774
ag4
(F48.018141999999997
F0.0094112032000000009
tp4775
Rp4776
ag4
(F48.018109000000003
F0.0094019913000000007
tp4777
Rp4778
ag4
(F48.018076000000001
F0.0093927795000000001
tp4779
Rp4780
ag4
(F48.018044000000003
F0.0093835676
tp4781
Rp4782
ag4
(F48.017989
F0.0093682144999999994
tp4783
Rp4784
ag4
(F48.017933999999997
F0.0093528614000000006
tp4785
Rp4786
ag4
(F48.017879000000001
F0.0093375003000000008
tp4787
Rp4788
ag4
(F48.017828000000002
F0.0093213523000000003
tp4789
Rp4790
ag4
(F48.017777000000002
F0.0093052042999999997
tp4791
Rp4792
ag4
(F48.017726000000003
F0.0092890105000000001
tp4793
Rp4794
ag4
(F48.017679999999999
F0.0092705762999999997
tp4795
Rp4796
ag4
(F48.017634000000001
F0.0092521419999999997
tp4797
Rp4798
ag4
(F48.017588000000003
F0.0092337076999999997
tp4799
Rp4800
ag4
(F48.017544000000001
F0.0092152734999999993
tp4801
Rp4802
ag4
(F48.017499000000001
F0.0091968391999999993
tp4803
Rp4804
ag4
(F48.017454000000001
F0.0091784048999999993
tp4805
Rp4806
ag4
(F48.017408000000003
F0.0091599707000000006
tp4807
Rp4808
ag4
(F48.017361999999999
F0.0091415364000000006
tp4809
Rp4810
ag4
(F48.017316000000001
F0.0091231021000000006
tp4811
Rp4812
ag4
(F48.017271999999998
F0.0091046679000000002
tp4813
Rp4814
ag4
(F48.017226999999998
F0.0090862336000000002
tp4815
Rp4816
ag4
(F48.017181999999998
F0.0090677993000000002
tp4817
Rp4818
ag4
(F48.017136999999998
F0.0090493650999999998
tp4819
Rp4820
ag4
(F48.017091000000001
F0.0090309307999999998
tp4821
Rp4822
ag4
(F48.017045000000003
F0.0090124964999999998
tp4823
Rp4824
ag4
(F48.017000000000003
F0.0089940621999999998
tp4825
Rp4826
ag4
(F48.016955000000003
F0.0089756279999999994
tp4827
Rp4828
ag4
(F48.016910000000003
F0.0089572552
tp4829
Rp4830
ag4
(F48.016862000000003
F0.0089395900000000007
tp4831
Rp4832
ag4
(F48.016813999999997
F0.0089219247999999998
tp4833
Rp4834
ag4
(F48.016764999999999
F0.0089042814000000001
tp4835
Rp4836
ag4
(F48.016717
F0.0088868587999999995
tp4837
Rp4838
ag4
(F48.016668000000003
F0.0088694362000000006
tp4839
Rp4840
ag4
(F48.016620000000003
F0.0088520135999999999
tp4841
Rp4842
ag4
(F48.016570999999999
F0.0088345909999999993
tp4843
Rp4844
ag4
(F48.016522999999999
F0.0088171685
tp4845
Rp4846
ag4
(F48.016474000000002
F0.0087997458999999993
tp4847
Rp4848
ag4
(F48.016426000000003
F0.0087823233000000004
tp4849
Rp4850
ag4
(F48.016376999999999
F0.0087649006999999998
tp4851
Rp4852
ag4
(F48.016328999999999
F0.0087474782000000004
tp4853
Rp4854
ag4
(F48.016280000000002
F0.0087300559000000003
tp4855
Rp4856
ag4
(F48.016232000000002
F0.0087126336000000002
tp4857
Rp4858
ag4
(F48.016182999999998
F0.0086952113000000001
tp4859
Rp4860
ag4
(F48.016133000000004
F0.0086777886999999995
tp4861
Rp4862
ag4
(F48.016083999999999
F0.0086603661000000005
tp4863
Rp4864
ag4
(F48.016033999999998
F0.0086429647999999998
tp4865
Rp4866
ag4
(F48.015985999999998
F0.0086256942000000007
tp4867
Rp4868
ag4
(F48.015937000000001
F0.0086084236999999994
tp4869
Rp4870
ag4
(F48.015889000000001
F0.0085912746000000005
tp4871
Rp4872
ag4
(F48.015841999999999
F0.0085748144999999998
tp4873
Rp4874
ag4
(F48.015794
F0.0085583544000000008
tp4875
Rp4876
ag4
(F48.015746999999998
F0.0085418943000000001
tp4877
Rp4878
ag4
(F48.015698
F0.0085254337999999992
tp4879
Rp4880
ag4
(F48.015650000000001
F0.0085089733999999997
tp4881
Rp4882
ag4
(F48.015602000000001
F0.0084925130000000001
tp4883
Rp4884
ag4
(F48.015554999999999
F0.0084760528999999994
tp4885
Rp4886
ag4
(F48.015506999999999
F0.0084595928000000004
tp4887
Rp4888
ag4
(F48.015459999999997
F0.0084431326999999997
tp4889
Rp4890
ag4
(F48.015411
F0.0084266726000000007
tp4891
Rp4892
ag4
(F48.015363000000001
F0.0084102125
tp4893
Rp4894
ag4
(F48.015315000000001
F0.0083937522999999997
tp4895
Rp4896
ag4
(F48.015267000000001
F0.0083772919000000001
tp4897
Rp4898
ag4
(F48.015219999999999
F0.0083608313999999993
tp4899
Rp4900
ag4
(F48.015172999999997
F0.0083443710999999993
tp4901
Rp4902
ag4
(F48.015124
F0.0083279110000000003
tp4903
Rp4904
ag4
(F48.015076000000001
F0.0083114508
tp4905
Rp4906
ag4
(F48.015028000000001
F0.0082950756999999996
tp4907
Rp4908
ag4
(F48.014983999999998
F0.0082790202000000007
tp4909
Rp4910
ag4
(F48.014938999999998
F0.0082629647000000001
tp4911
Rp4912
ag4
(F48.014893999999998
F0.0082470189999999995
tp4913
Rp4914
ag4
(F48.014851
F0.0082314624999999999
tp4915
Rp4916
ag4
(F48.014808000000002
F0.0082159059000000007
tp4917
Rp4918
ag4
(F48.014764
F0.0082003493999999993
tp4919
Rp4920
ag4
(F48.014721000000002
F0.0081847924999999995
tp4921
Rp4922
ag4
(F48.014678000000004
F0.0081692356999999993
tp4923
Rp4924
ag4
(F48.014634000000001
F0.0081536788999999991
tp4925
Rp4926
ag4
(F48.014591000000003
F0.0081381221000000007
tp4927
Rp4928
ag4
(F48.014547
F0.0081225651999999992
tp4929
Rp4930
ag4
(F48.014504000000002
F0.0081070085000000004
tp4931
Rp4932
ag4
(F48.014460999999997
F0.0080914520000000007
tp4933
Rp4934
ag4
(F48.014417000000002
F0.0080758954999999993
tp4935
Rp4936
ag4
(F48.014373999999997
F0.0080603389000000001
tp4937
Rp4938
ag4
(F48.014330999999999
F0.0080447820000000003
tp4939
Rp4940
ag4
(F48.014287000000003
F0.0080292252000000001
tp4941
Rp4942
ag4
(F48.014243999999998
F0.0080136684999999996
tp4943
Rp4944
ag4
(F48.014201999999997
F0.0079981119999999999
tp4945
Rp4946
ag4
(F48.014159999999997
F0.0079825554000000007
tp4947
Rp4948
ag4
(F48.014116999999999
F0.0079671501000000006
tp4949
Rp4950
ag4
(F48.014074000000001
F0.0079521334000000003
tp4951
Rp4952
ag4
(F48.014031000000003
F0.0079371166000000003
tp4953
Rp4954
ag4
(F48.013987999999998
F0.0079221919000000002
tp4955
Rp4956
ag4
(F48.013945999999997
F0.0079074921999999995
tp4957
Rp4958
ag4
(F48.013903999999997
F0.0078927926000000002
tp4959
Rp4960
ag4
(F48.013860999999999
F0.0078780931000000005
tp4961
Rp4962
ag4
(F48.013818000000001
F0.0078633937000000004
tp4963
Rp4964
ag4
(F48.013773999999998
F0.0078486943999999999
tp4965
Rp4966
ag4
(F48.013731
F0.0078339949999999998
tp4967
Rp4968
ag4
(F48.013688999999999
F0.0078192954000000005
tp4969
Rp4970
ag4
(F48.013646999999999
F0.0078045956999999999
tp4971
Rp4972
ag4
(F48.013604999999998
F0.0077898960999999997
tp4973
Rp4974
ag4
(F48.013562999999998
F0.0077751966999999996
tp4975
Rp4976
ag4
(F48.013520999999997
F0.0077604971999999999
tp4977
Rp4978
ag4
(F48.013478999999997
F0.0077457977000000003
tp4979
Rp4980
ag4
(F48.013437000000003
F0.0077310981999999997
tp4981
Rp4982
ag4
(F48.013393999999998
F0.0077163987999999996
tp4983
Rp4984
ag4
(F48.013351999999998
F0.0077016992999999999
tp4985
Rp4986
ag4
(F48.013309
F0.0076869998000000002
tp4987
Rp4988
ag4
(F48.013264999999997
F0.0076723002999999996
tp4989
Rp4990
ag4
(F48.013221999999999
F0.0076577974000000002
tp4991
Rp4992
ag4
(F48.013179999999998
F0.0076436595000000003
tp4993
Rp4994
ag4
(F48.013137999999998
F0.0076295216000000004
tp4995
Rp4996
ag4
(F48.013095999999997
F0.0076154704000000002
tp4997
Rp4998
ag4
(F48.013055999999999
F0.0076015733
tp4999
Rp5000
ag4
(F48.013015000000003
F0.0075876761999999999
tp5001
Rp5002
ag4
(F48.012973000000002
F0.0075737790999999997
tp5003
Rp5004
ag4
(F48.012931000000002
F0.0075598820000000004
tp5005
Rp5006
ag4
(F48.012889000000001
F0.0075459849000000002
tp5007
Rp5008
ag4
(F48.012847000000001
F0.0075320878000000001
tp5009
Rp5010
ag4
(F48.012805
F0.0075181909
tp5011
Rp5012
ag4
(F48.012763
F0.0075042939000000003
tp5013
Rp5014
ag4
(F48.012720999999999
F0.0074903968999999997
tp5015
Rp5016
ag4
(F48.012678999999999
F0.0074764997999999996
tp5017
Rp5018
ag4
(F48.012636999999998
F0.0074626027000000003
tp5019
Rp5020
ag4
(F48.012594999999997
F0.0074487056000000001
tp5021
Rp5022
ag4
(F48.012554000000002
F0.0074348085
tp5023
Rp5024
ag4
(F48.012512999999998
F0.0074209113999999998
tp5025
Rp5026
ag4
(F48.012472000000002
F0.0074070142999999996
tp5027
Rp5028
ag4
(F48.012430000000002
F0.0073931172000000003
tp5029
Rp5030
ag4
(F48.012388000000001
F0.0073792201000000002
tp5031
Rp5032
ag4
(F48.012346999999998
F0.0073655342
tp5033
Rp5034
ag4
(F48.012307
F0.0073521398999999996
tp5035
Rp5036
ag4
(F48.012267999999999
F0.0073387456999999996
tp5037
Rp5038
ag4
(F48.012228999999998
F0.0073254629000000003
tp5039
Rp5040
ag4
(F48.012191999999999
F0.0073123275999999997
tp5041
Rp5042
ag4
(F48.012155
F0.0072991923999999996
tp5043
Rp5044
ag4
(F48.012118000000001
F0.0072860572000000004
tp5045
Rp5046
ag4
(F48.012081000000002
F0.0072729218999999998
tp5047
Rp5048
ag4
(F48.012044000000003
F0.0072597866999999996
tp5049
Rp5050
ag4
(F48.012006999999997
F0.0072466515000000004
tp5051
Rp5052
ag4
(F48.011968000000003
F0.0072335165000000003
tp5053
Rp5054
ag4
(F48.01193
F0.0072203813999999998
tp5055
Rp5056
ag4
(F48.011892000000003
F0.0072072461999999997
tp5057
Rp5058
ag4
(F48.011854999999997
F0.0071941110000000004
tp5059
Rp5060
ag4
(F48.011817999999998
F0.0071809758000000003
tp5061
Rp5062
ag4
(F48.011780999999999
F0.0071678406000000002
tp5063
Rp5064
ag4
(F48.011744
F0.0071547052999999996
tp5065
Rp5066
ag4
(F48.011707000000001
F0.0071415701000000003
tp5067
Rp5068
ag4
(F48.011670000000002
F0.0071284349000000002
tp5069
Rp5070
ag4
(F48.011631999999999
F0.0071152995999999996
tp5071
Rp5072
ag4
(F48.011592999999998
F0.0071021644000000004
tp5073
Rp5074
ag4
(F48.011555999999999
F0.0070892074000000003
tp5075
Rp5076
ag4
(F48.011519
F0.0070764360000000002
tp5077
Rp5078
ag4
(F48.011482000000001
F0.0070636646000000001
tp5079
Rp5080
ag4
(F48.011445000000002
F0.0070510707999999998
tp5081
Rp5082
ag4
(F48.011408000000003
F0.0070386546000000003
tp5083
Rp5084
ag4
(F48.011370999999997
F0.0070262383999999999
tp5085
Rp5086
ag4
(F48.011333999999998
F0.0070138222000000004
tp5087
Rp5088
ag4
(F48.011299000000001
F0.0070014057999999999
tp5089
Rp5090
ag4
(F48.011263
F0.0069889894999999999
tp5091
Rp5092
ag4
(F48.011226000000001
F0.0069765731999999999
tp5093
Rp5094
ag4
(F48.011189000000002
F0.0069641570999999999
tp5095
Rp5096
ag4
(F48.011152000000003
F0.0069517409000000004
tp5097
Rp5098
ag4
(F48.011114999999997
F0.0069393246000000004
tp5099
Rp5100
ag4
(F48.011077999999998
F0.0069269083000000004
tp5101
Rp5102
ag4
(F48.011040999999999
F0.0069144918999999999
tp5103
Rp5104
ag4
(F48.011004
F0.0069020757000000004
tp5105
Rp5106
ag4
(F48.010967000000001
F0.0068896595
tp5107
Rp5108
ag4
(F48.010930000000002
F0.0068772432999999996
tp5109
Rp5110
ag4
(F48.010893000000003
F0.0068648271
tp5111
Rp5112
ag4
(F48.010857000000001
F0.0068524107000000004
tp5113
Rp5114
ag4
(F48.010820000000002
F0.0068399944000000004
tp5115
Rp5116
ag4
(F48.010783000000004
F0.0068276680000000003
tp5117
Rp5118
ag4
(F48.010745999999997
F0.0068154121999999999
tp5119
Rp5120
ag4
(F48.010708999999999
F0.0068031563999999996
tp5121
Rp5122
ag4
(F48.010672
F0.0067911967
tp5123
Rp5124
ag4
(F48.010637000000003
F0.0067794602999999998
tp5125
Rp5126
ag4
(F48.010601000000001
F0.0067677240000000001
tp5127
Rp5128
ag4
(F48.010565
F0.0067559877000000004
tp5129
Rp5130
ag4
(F48.010528999999998
F0.0067442515000000003
tp5131
Rp5132
ag4
(F48.010494000000001
F0.0067325151999999997
tp5133
Rp5134
ag4
(F48.010457000000002
F0.0067207789999999996
tp5135
Rp5136
ag4
(F48.010420000000003
F0.0067090428000000004
tp5137
Rp5138
ag4
(F48.010382999999997
F0.0066973066000000003
tp5139
Rp5140
ag4
(F48.010347000000003
F0.0066855702999999997
tp5141
Rp5142
ag4
(F48.010311000000002
F0.0066738339000000004
tp5143
Rp5144
ag4
(F48.010275
F0.0066620975000000002
tp5145
Rp5146
ag4
(F48.010240000000003
F0.0066503611999999997
tp5147
Rp5148
ag4
(F48.010204000000002
F0.0066386250000000004
tp5149
Rp5150
ag4
(F48.010168
F0.0066268888000000003
tp5151
Rp5152
ag4
(F48.010131999999999
F0.0066151524999999997
tp5153
Rp5154
ag4
(F48.010095
F0.0066034160999999996
tp5155
Rp5156
ag4
(F48.010058000000001
F0.0065916797000000003
tp5157
Rp5158
ag4
(F48.010021999999999
F0.0065799433999999997
tp5159
Rp5160
ag4
(F48.009985999999998
F0.0065682071999999996
tp5161
Rp5162
ag4
(F48.009950000000003
F0.0065564710000000003
tp5163
Rp5164
ag4
(F48.009915999999997
F0.0065450826999999996
tp5165
Rp5166
ag4
(F48.009883000000002
F0.0065338901999999997
tp5167
Rp5168
ag4
(F48.00985
F0.0065226976000000002
tp5169
Rp5170
ag4
(F48.009816999999998
F0.0065115685000000003
tp5171
Rp5172
ag4
(F48.009785000000001
F0.0065004733999999998
tp5173
Rp5174
ag4
(F48.009754000000001
F0.0064893783999999998
tp5175
Rp5176
ag4
(F48.009721999999996
F0.0064782833999999997
tp5177
Rp5178
ag4
(F48.009689999999999
F0.0064671883000000001
tp5179
Rp5180
ag4
(F48.009658000000002
F0.0064560933000000001
tp5181
Rp5182
ag4
(F48.009625999999997
F0.0064449981999999996
tp5183
Rp5184
ag4
(F48.009594
F0.0064339032000000004
tp5185
Rp5186
ag4
(F48.009562000000003
F0.0064228080999999999
tp5187
Rp5188
ag4
(F48.009529999999998
F0.0064117130999999999
tp5189
Rp5190
ag4
(F48.009498000000001
F0.0064006180999999999
tp5191
Rp5192
ag4
(F48.009467000000001
F0.0063895230000000003
tp5193
Rp5194
ag4
(F48.009433999999999
F0.0063784280000000002
tp5195
Rp5196
ag4
(F48.009400999999997
F0.0063673328999999997
tp5197
Rp5198
ag4
(F48.009366999999997
F0.0063562378999999997
tp5199
Rp5200
ag4
(F48.009335
F0.0063451428000000001
tp5201
Rp5202
ag4
(F48.009303000000003
F0.0063340478
tp5203
Rp5204
ag4
(F48.009270999999998
F0.0063229528
tp5205
Rp5206
ag4
(F48.009239000000001
F0.0063120034999999998
tp5207
Rp5208
ag4
(F48.009205000000001
F0.0063011137000000004
tp5209
Rp5210
ag4
(F48.009172
F0.0062902239
tp5211
Rp5212
ag4
(F48.009138
F0.0062796210999999996
tp5213
Rp5214
ag4
(F48.009104000000001
F0.0062691298000000003
tp5215
Rp5216
ag4
(F48.009068999999997
F0.0062586385999999997
tp5217
Rp5218
ag4
(F48.009034
F0.0062481474
tp5219
Rp5220
ag4
(F48.008997999999998
F0.0062376560999999999
tp5221
Rp5222
ag4
(F48.008961999999997
F0.0062271649000000002
tp5223
Rp5224
ag4
(F48.008927999999997
F0.0062166736999999996
tp5225
Rp5226
ag4
(F48.008893
F0.0062061827
tp5227
Rp5228
ag4
(F48.008859000000001
F0.0061956915999999999
tp5229
Rp5230
ag4
(F48.008823
F0.0061852004000000002
tp5231
Rp5232
ag4
(F48.008788000000003
F0.0061747091
tp5233
Rp5234
ag4
(F48.008752000000001
F0.0061642179000000004
tp5235
Rp5236
ag4
(F48.008716999999997
F0.0061537268000000003
tp5237
Rp5238
ag4
(F48.008682999999998
F0.0061432357000000002
tp5239
Rp5240
ag4
(F48.008648000000001
F0.0061327446000000001
tp5241
Rp5242
ag4
(F48.008612999999997
F0.0061222534000000004
tp5243
Rp5244
ag4
(F48.008577000000002
F0.0061117621999999998
tp5245
Rp5246
ag4
(F48.008541000000001
F0.0061012708999999997
tp5247
Rp5248
ag4
(F48.008507000000002
F0.0060907797
tp5249
Rp5250
ag4
(F48.008471999999998
F0.0060802883999999998
tp5251
Rp5252
ag4
(F48.008437999999998
F0.0060697972000000001
tp5253
Rp5254
ag4
(F48.008405000000003
F0.0060596278999999996
tp5255
Rp5256
ag4
(F48.008372999999999
F0.0060495443000000001
tp5257
Rp5258
ag4
(F48.008341000000001
F0.0060394606000000002
tp5259
Rp5260
ag4
(F48.008310000000002
F0.0060295087999999997
tp5261
Rp5262
ag4
(F48.008277999999997
F0.0060195899000000004
tp5263
Rp5264
ag4
(F48.008246
F0.0060096710000000003
tp5265
Rp5266
ag4
(F48.008215
F0.0059997521999999998
tp5267
Rp5268
ag4
(F48.008184
F0.0059898334999999997
tp5269
Rp5270
ag4
(F48.008153999999998
F0.0059799147
tp5271
Rp5272
ag4
(F48.008122999999998
F0.0059699957999999999
tp5273
Rp5274
ag4
(F48.008091999999998
F0.0059600768999999998
tp5275
Rp5276
ag4
(F48.008062000000002
F0.0059501579999999997
tp5277
Rp5278
ag4
(F48.008029999999998
F0.0059402392
tp5279
Rp5280
ag4
(F48.007998000000001
F0.0059303202999999999
tp5281
Rp5282
ag4
(F48.007966000000003
F0.0059204013999999998
tp5283
Rp5284
ag4
(F48.007936000000001
F0.0059104824999999996
tp5285
Rp5286
ag4
(F48.007905000000001
F0.0059005636000000004
tp5287
Rp5288
ag4
(F48.007874000000001
F0.0058906447000000002
tp5289
Rp5290
ag4
(F48.007843999999999
F0.0058807258999999997
tp5291
Rp5292
ag4
(F48.007812999999999
F0.0058708071999999997
tp5293
Rp5294
ag4
(F48.007781999999999
F0.0058608884
tp5295
Rp5296
ag4
(F48.007750999999999
F0.0058509694999999999
tp5297
Rp5298
ag4
(F48.007719000000002
F0.0058410505999999997
tp5299
Rp5300
ag4
(F48.007686999999997
F0.0058311318000000001
tp5301
Rp5302
ag4
(F48.007658999999997
F0.0058216650999999998
tp5303
Rp5304
ag4
(F48.007632999999998
F0.0058122661000000004
tp5305
Rp5306
ag4
(F48.007606000000003
F0.0058028671000000002
tp5307
Rp5308
ag4
(F48.007579
F0.0057934869000000003
tp5309
Rp5310
ag4
(F48.007551999999997
F0.0057841094000000001
tp5311
Rp5312
ag4
(F48.007525999999999
F0.0057747318000000002
tp5313
Rp5314
ag4
(F48.007497999999998
F0.0057653543999999996
tp5315
Rp5316
ag4
(F48.007469999999998
F0.0057559769999999998
tp5317
Rp5318
ag4
(F48.007441
F0.0057465996
tp5319
Rp5320
ag4
(F48.007415000000002
F0.0057372220999999998
tp5321
Rp5322
ag4
(F48.007387999999999
F0.0057278446000000004
tp5323
Rp5324
ag4
(F48.007361000000003
F0.0057184669999999996
tp5325
Rp5326
ag4
(F48.007334
F0.0057090895999999999
tp5327
Rp5328
ag4
(F48.007306999999997
F0.0056997122000000001
tp5329
Rp5330
ag4
(F48.007280999999999
F0.0056903348000000003
tp5331
Rp5332
ag4
(F48.007252999999999
F0.0056809573
tp5333
Rp5334
ag4
(F48.007224999999998
F0.0056715797999999998
tp5335
Rp5336
ag4
(F48.007196
F0.0056622021999999999
tp5337
Rp5338
ag4
(F48.007170000000002
F0.0056528248000000001
tp5339
Rp5340
ag4
(F48.007142999999999
F0.0056434474000000004
tp5341
Rp5342
ag4
(F48.007116000000003
F0.0056340699999999997
tp5343
Rp5344
ag4
(F48.007089000000001
F0.0056247318999999999
tp5345
Rp5346
ag4
(F48.007061999999998
F0.0056153962
tp5347
Rp5348
ag4
(F48.007035999999999
F0.0056060605999999997
tp5349
Rp5350
ag4
(F48.007004999999999
F0.0055971700000000003
tp5351
Rp5352
ag4
(F48.006974999999997
F0.0055883028000000001
tp5353
Rp5354
ag4
(F48.006943999999997
F0.0055794356
tp5355
Rp5356
ag4
(F48.006912999999997
F0.0055705681999999998
tp5357
Rp5358
ag4
(F48.006883000000002
F0.0055617009
tp5359
Rp5360
ag4
(F48.006852000000002
F0.0055528336000000003
tp5361
Rp5362
ag4
(F48.006822999999997
F0.0055439664000000001
tp5363
Rp5364
ag4
(F48.006793000000002
F0.0055350992
tp5365
Rp5366
ag4
(F48.006763999999997
F0.0055262319999999998
tp5367
Rp5368
ag4
(F48.006732999999997
F0.0055173647000000001
tp5369
Rp5370
ag4
(F48.006703000000002
F0.0055084972999999999
tp5371
Rp5372
ag4
(F48.006672000000002
F0.0054996300000000001
tp5373
Rp5374
ag4
(F48.006642999999997
F0.0054907628
tp5375
Rp5376
ag4
(F48.006613999999999
F0.0054818955999999999
tp5377
Rp5378
ag4
(F48.006583999999997
F0.0054730283999999997
tp5379
Rp5380
asb.