(iocelot.optics.bragg
CrystalStructureFactors
p0
(dp1
S'fh'
p2
(lp3
c__builtin__
complex
p4
(F73.272967
F13.831081
tp5
Rp6
ag4
(F73.317072
F13.699996
tp7
Rp8
ag4
(F73.356859
F13.573659
tp9
Rp10
ag4
(F73.396506
F13.447474
tp11
Rp12
ag4
(F73.435508
F13.322048
tp13
Rp14
ag4
(F73.471185
F13.200525
tp15
Rp16
ag4
(F73.506863
F13.079003
tp17
Rp18
ag4
(F73.541202
F12.959061
tp19
Rp20
ag4
(F73.573123
F12.841977
tp21
Rp22
ag4
(F73.605043
F12.724893
tp23
Rp24
ag4
(F73.635192
F12.610127
tp25
Rp26
ag4
(F73.66389
F12.497257
tp27
Rp28
ag4
(F73.692589
F12.384388
tp29
Rp30
ag4
(F73.719102
F12.274524
tp31
Rp32
ag4
(F73.744862
F12.165695
tp33
Rp34
ag4
(F73.770622
F12.056866
tp35
Rp36
ag4
(F73.793512
F11.951615
tp37
Rp38
ag4
(F73.81621
F11.846602
tp39
Rp40
ag4
(F73.838543
F11.742137
tp41
Rp42
ag4
(F73.858452
F11.6413
tp43
Rp44
ag4
(F73.878361
F11.540463
tp45
Rp46
ag4
(F73.897574
F11.440749
tp47
Rp48
ag4
(F73.915341
F11.343368
tp49
Rp50
ag4
(F73.933107
F11.245987
tp51
Rp52
ag4
(F73.949814
F11.150322
tp53
Rp54
ag4
(F73.965536
F11.05625
tp55
Rp56
ag4
(F73.981258
F10.962178
tp57
Rp58
ag4
(F73.995669
F10.870319
tp59
Rp60
ag4
(F74.009551
F10.779354
tp61
Rp62
ag4
(F74.023433
F10.688389
tp63
Rp64
ag4
(F74.035743
F10.600075
tp65
Rp66
ag4
(F74.04789
F10.512035
tp67
Rp68
ag4
(F74.059861
F10.424273
tp69
Rp70
ag4
(F74.070252
F10.339018
tp71
Rp72
ag4
(F74.080643
F10.253763
tp73
Rp74
ag4
(F74.090538
F10.16949
tp75
Rp76
ag4
(F74.099241
F10.087581
tp77
Rp78
ag4
(F74.107943
F10.005672
tp79
Rp80
ag4
(F74.116063
F9.9250861
tp81
Rp82
ag4
(F74.123569
F9.8458913
tp83
Rp84
ag4
(F74.131076
F9.7666965
tp85
Rp86
ag4
(F74.137771
F9.6891408
tp87
Rp88
ag4
(F74.144086
F9.6123521
tp89
Rp90
ag4
(F74.150402
F9.5355633
tp91
Rp92
ag4
(F74.155735
F9.4607589
tp93
Rp94
ag4
(F74.160928
F9.3862379
tp95
Rp96
ag4
(F74.166049
F9.3118743
tp97
Rp98
ag4
(F74.170198
F9.2396442
tp99
Rp100
ag4
(F74.174346
F9.1674141
tp101
Rp102
ag4
(F74.178158
F9.0959323
tp103
Rp104
ag4
(F74.181024
F9.026553
tp105
Rp106
ag4
(F74.183889
F8.9571738
tp107
Rp108
ag4
(F74.18641
F8.8886892
tp109
Rp110
ag4
(F74.18852
F8.8212709
tp111
Rp112
ag4
(F74.190629
F8.7538525
tp113
Rp114
ag4
(F74.192315
F8.6876316
tp115
Rp116
ag4
(F74.193772
F8.6220555
tp117
Rp118
ag4
(F74.195229
F8.5564794
tp119
Rp120
ag4
(F74.196159
F8.4925765
tp121
Rp122
ag4
(F74.196991
F8.4289833
tp123
Rp124
ag4
(F74.197781
F8.36548
tp125
Rp126
ag4
(F74.197496
F8.3042817
tp127
Rp128
ag4
(F74.19721
F8.2430835
tp129
Rp130
ag4
(F74.196826
F8.1822474
tp131
Rp132
ag4
(F74.196114
F8.1226154
tp133
Rp134
ag4
(F74.195401
F8.0629835
tp135
Rp136
ag4
(F74.194525
F8.0039851
tp137
Rp138
ag4
(F74.193427
F7.9458441
tp139
Rp140
ag4
(F74.192328
F7.887703
tp141
Rp142
ag4
(F74.190683
F7.8309452
tp143
Rp144
ag4
(F74.188701
F7.7750397
tp145
Rp146
ag4
(F74.186719
F7.7191343
tp147
Rp148
ag4
(F74.184444
F7.6644554
tp149
Rp150
ag4
(F74.1821
F7.6100595
tp151
Rp152
ag4
(F74.179754
F7.5556713
tp153
Rp154
ag4
(F74.177076
F7.502516
tp155
Rp156
ag4
(F74.174399
F7.4493607
tp157
Rp158
ag4
(F74.171604
F7.396576
tp159
Rp160
ag4
(F74.168341
F7.3452735
tp161
Rp162
ag4
(F74.165079
F7.293971
tp163
Rp164
ag4
(F74.161672
F7.2432676
tp165
Rp166
ag4
(F74.158042
F7.1934866
tp167
Rp168
ag4
(F74.154413
F7.1437055
tp169
Rp170
ag4
(F74.150659
F7.0945393
tp171
Rp172
ag4
(F74.146817
F7.0458048
tp173
Rp174
ag4
(F74.142976
F6.9970703
tp175
Rp176
ag4
(F74.138941
F6.9496538
tp177
Rp178
ag4
(F74.134852
F6.9026062
tp179
Rp180
ag4
(F74.130763
F6.8555587
tp181
Rp182
ag4
(F74.126239
F6.8098155
tp183
Rp184
ag4
(F74.121704
F6.7641057
tp185
Rp186
ag4
(F74.117127
F6.7185434
tp187
Rp188
ag4
(F74.112339
F6.6737072
tp189
Rp190
ag4
(F74.107552
F6.628871
tp191
Rp192
ag4
(F74.102672
F6.5846432
tp193
Rp194
ag4
(F74.097632
F6.5414855
tp195
Rp196
ag4
(F74.092591
F6.4983278
tp197
Rp198
ag4
(F74.087469
F6.4557189
tp199
Rp200
ag4
(F74.082282
F6.4135479
tp201
Rp202
ag4
(F74.077095
F6.3713769
tp203
Rp204
ag4
(F74.071811
F6.3298766
tp205
Rp206
ag4
(F74.066496
F6.2885999
tp207
Rp208
ag4
(F74.061181
F6.2473231
tp209
Rp210
ag4
(F74.055638
F6.2075237
tp211
Rp212
ag4
(F74.050081
F6.1678122
tp213
Rp214
ag4
(F74.044511
F6.1281865
tp215
Rp216
ag4
(F74.038858
F6.0890982
tp217
Rp218
ag4
(F74.033206
F6.0500098
tp219
Rp220
ag4
(F74.027495
F6.0113281
tp221
Rp222
ag4
(F74.021663
F5.9734671
tp223
Rp224
ag4
(F74.015831
F5.9356061
tp225
Rp226
ag4
(F74.009918
F5.8982891
tp227
Rp228
ag4
(F74.003932
F5.8614645
tp229
Rp230
ag4
(F73.997945
F5.8246398
tp231
Rp232
ag4
(F73.991892
F5.7882729
tp233
Rp234
ag4
(F73.985813
F5.7520851
tp235
Rp236
ag4
(F73.979734
F5.7158973
tp237
Rp238
ag4
(F73.973595
F5.6809983
tp239
Rp240
ag4
(F73.967451
F5.6462229
tp241
Rp242
ag4
(F73.961301
F5.611493
tp243
Rp244
ag4
(F73.955105
F5.5771457
tp245
Rp246
ag4
(F73.948909
F5.5427985
tp247
Rp248
ag4
(F73.942659
F5.5088045
tp249
Rp250
ag4
(F73.936281
F5.4756348
tp251
Rp252
ag4
(F73.929902
F5.4424652
tp253
Rp254
ag4
(F73.923511
F5.4096343
tp255
Rp256
ag4
(F73.917106
F5.3771507
tp257
Rp258
ag4
(F73.9107
F5.3446672
tp259
Rp260
ag4
(F73.904273
F5.312711
tp261
Rp262
ag4
(F73.897835
F5.2809947
tp263
Rp264
ag4
(F73.891397
F5.2492783
tp265
Rp266
ag4
(F73.884925
F5.2183852
tp267
Rp268
ag4
(F73.878449
F5.1876031
tp269
Rp270
ag4
(F73.871972
F5.1568509
tp271
Rp272
ag4
(F73.86548
F5.1264683
tp273
Rp274
ag4
(F73.858988
F5.0960856
tp275
Rp276
ag4
(F73.852483
F5.0660253
tp277
Rp278
ag4
(F73.845944
F5.0368423
tp279
Rp280
ag4
(F73.839406
F5.0076593
tp281
Rp282
ag4
(F73.832862
F4.9785798
tp283
Rp284
ag4
(F73.826313
F4.9496208
tp285
Rp286
ag4
(F73.819764
F4.9206617
tp287
Rp288
ag4
(F73.813184
F4.8924818
tp289
Rp290
ag4
(F73.806588
F4.8647102
tp291
Rp292
ag4
(F73.799993
F4.8369385
tp293
Rp294
ag4
(F73.793418
F4.8093855
tp295
Rp296
ag4
(F73.786847
F4.7818711
tp297
Rp298
ag4
(F73.780279
F4.7543984
tp299
Rp300
ag4
(F73.77379
F4.7278391
tp301
Rp302
ag4
(F73.7673
F4.7012798
tp303
Rp304
ag4
(F73.760807
F4.6748062
tp305
Rp306
ag4
(F73.754301
F4.6486076
tp307
Rp308
ag4
(F73.747795
F4.6224091
tp309
Rp310
ag4
(F73.741277
F4.5965359
tp311
Rp312
ag4
(F73.734744
F4.5710918
tp313
Rp314
ag4
(F73.728211
F4.5456477
tp315
Rp316
ag4
(F73.721666
F4.5204905
tp317
Rp318
ag4
(F73.715114
F4.4955055
tp319
Rp320
ag4
(F73.708562
F4.4705205
tp321
Rp322
ag4
(F73.70199
F4.4460906
tp323
Rp324
ag4
(F73.695413
F4.4217836
tp325
Rp326
ag4
(F73.688837
F4.3974826
tp327
Rp328
ag4
(F73.682307
F4.3736542
tp329
Rp330
ag4
(F73.675776
F4.3498259
tp331
Rp332
ag4
(F73.669258
F4.3261166
tp333
Rp334
ag4
(F73.662785
F4.3028654
tp335
Rp336
ag4
(F73.656311
F4.2796143
tp337
Rp338
ag4
(F73.649859
F4.2565578
tp339
Rp340
ag4
(F73.643437
F4.2337933
tp341
Rp342
ag4
(F73.637016
F4.2110289
tp343
Rp344
ag4
(F73.630625
F4.1885888
tp345
Rp346
ag4
(F73.624255
F4.1663708
tp347
Rp348
ag4
(F73.617885
F4.1441528
tp349
Rp350
ag4
(F73.611502
F4.1222605
tp351
Rp352
ag4
(F73.605116
F4.100456
tp353
Rp354
ag4
(F73.598729
F4.0786516
tp355
Rp356
ag4
(F73.592322
F4.057329
tp357
Rp358
ag4
(F73.585914
F4.0360157
tp359
Rp360
ag4
(F73.579523
F4.0147759
tp361
Rp362
ag4
(F73.573216
F3.9938833
tp363
Rp364
ag4
(F73.566908
F3.9729906
tp365
Rp366
ag4
(F73.560652
F3.9523207
tp367
Rp368
ag4
(F73.554483
F3.9320322
tp369
Rp370
ag4
(F73.548315
F3.9117436
tp371
Rp372
ag4
(F73.54214
F3.8916112
tp373
Rp374
ag4
(F73.53596
F3.8716002
tp375
Rp376
ag4
(F73.529781
F3.8515893
tp377
Rp378
ag4
(F73.523582
F3.8320036
tp379
Rp380
ag4
(F73.517378
F3.8125551
tp381
Rp382
ag4
(F73.511174
F3.7931065
tp383
Rp384
ag4
(F73.505017
F3.7738347
tp385
Rp386
ag4
(F73.498861
F3.7545721
tp387
Rp388
ag4
(F73.492732
F3.7354061
tp389
Rp390
ag4
(F73.486759
F3.7168146
tp391
Rp392
ag4
(F73.480786
F3.698223
tp393
Rp394
ag4
(F73.474815
F3.6796508
tp395
Rp396
ag4
(F73.468848
F3.6611164
tp397
Rp398
ag4
(F73.46288
F3.642582
tp399
Rp400
ag4
(F73.45696
F3.6244561
tp401
Rp402
ag4
(F73.451082
F3.6066908
tp403
Rp404
ag4
(F73.445204
F3.5889254
tp405
Rp406
ag4
(F73.439327
F3.57116
tp407
Rp408
ag4
(F73.433449
F3.5533945
tp409
Rp410
ag4
(F73.427571
F3.5356291
tp411
Rp412
ag4
(F73.421768
F3.5185056
tp413
Rp414
ag4
(F73.415972
F3.5014389
tp415
Rp416
ag4
(F73.410177
F3.4843821
tp417
Rp418
ag4
(F73.404394
F3.4674044
tp419
Rp420
ag4
(F73.398611
F3.4504267
tp421
Rp422
ag4
(F73.392873
F3.4336018
tp423
Rp424
ag4
(F73.387234
F3.4171229
tp425
Rp426
ag4
(F73.381596
F3.400644
tp427
Rp428
ag4
(F73.375994
F3.3842884
tp429
Rp430
ag4
(F73.370428
F3.368056
tp431
Rp432
ag4
(F73.364863
F3.3518237
tp433
Rp434
ag4
(F73.359323
F3.3357975
tp435
Rp436
ag4
(F73.353793
F3.3198622
tp437
Rp438
ag4
(F73.348263
F3.303927
tp439
Rp440
ag4
(F73.342779
F3.2883626
tp441
Rp442
ag4
(F73.337301
F3.2728452
tp443
Rp444
ag4
(F73.331825
F3.2573348
tp445
Rp446
ag4
(F73.326374
F3.2419041
tp447
Rp448
ag4
(F73.320923
F3.2264735
tp449
Rp450
ag4
(F73.315522
F3.2112091
tp451
Rp452
ag4
(F73.310253
F3.1963831
tp453
Rp454
ag4
(F73.304984
F3.1815571
tp455
Rp456
ag4
(F73.299716
F3.1667311
tp457
Rp458
ag4
(F73.29445
F3.1519051
tp459
Rp460
ag4
(F73.289184
F3.1370791
tp461
Rp462
ag4
(F73.283961
F3.1225979
tp463
Rp464
ag4
(F73.27876
F3.1082924
tp465
Rp466
ag4
(F73.273559
F3.0939868
tp467
Rp468
ag4
(F73.268372
F3.0797936
tp469
Rp470
ag4
(F73.263188
F3.0656192
tp471
Rp472
ag4
(F73.25801
F3.0514586
tp473
Rp474
ag4
(F73.252964
F3.037558
tp475
Rp476
ag4
(F73.247918
F3.0236575
tp477
Rp478
ag4
(F73.242917
F3.009844
tp479
Rp480
ag4
(F73.238053
F2.9963008
tp481
Rp482
ag4
(F73.233189
F2.9827575
tp483
Rp484
ag4
(F73.228326
F2.9692224
tp485
Rp486
ag4
(F73.223465
F2.955698
tp487
Rp488
ag4
(F73.218604
F2.9421736
tp489
Rp490
ag4
(F73.21379
F2.9290193
tp491
Rp492
ag4
(F73.209002
F2.9160812
tp493
Rp494
ag4
(F73.204214
F2.9031431
tp495
Rp496
ag4
(F73.199429
F2.8902049
tp497
Rp498
ag4
(F73.194644
F2.8772667
tp499
Rp500
ag4
(F73.189862
F2.8643349
tp501
Rp502
ag4
(F73.185254
F2.8517357
tp503
Rp504
ag4
(F73.180646
F2.8391366
tp505
Rp506
ag4
(F73.176065
F2.8265877
tp507
Rp508
ag4
(F73.171584
F2.8142248
tp509
Rp510
ag4
(F73.167104
F2.8018618
tp511
Rp512
ag4
(F73.162637
F2.7895228
tp513
Rp514
ag4
(F73.158189
F2.7772186
tp515
Rp516
ag4
(F73.153741
F2.7649145
tp517
Rp518
ag4
(F73.149452
F2.7529017
tp519
Rp520
ag4
(F73.145267
F2.7410832
tp521
Rp522
ag4
(F73.141083
F2.7292647
tp523
Rp524
ag4
(F73.136901
F2.7174462
tp525
Rp526
ag4
(F73.13272
F2.7056277
tp527
Rp528
ag4
(F73.128539
F2.6938092
tp529
Rp530
ag4
(F73.124457
F2.6822981
tp531
Rp532
ag4
(F73.120376
F2.6707909
tp533
Rp534
ag4
(F73.116309
F2.6593234
tp535
Rp536
ag4
(F73.112304
F2.6480358
tp537
Rp538
ag4
(F73.108299
F2.6367481
tp539
Rp540
ag4
(F73.104297
F2.6254649
tp541
Rp542
ag4
(F73.100298
F2.6141894
tp543
Rp544
ag4
(F73.096298
F2.6029139
tp545
Rp546
ag4
(F73.092457
F2.5919152
tp547
Rp548
ag4
(F73.088735
F2.5811265
tp549
Rp550
ag4
(F73.085013
F2.5703378
tp551
Rp552
ag4
(F73.081291
F2.5595492
tp553
Rp554
ag4
(F73.077569
F2.5487605
tp555
Rp556
ag4
(F73.073847
F2.5379719
tp557
Rp558
ag4
(F73.070234
F2.5273782
tp559
Rp560
ag4
(F73.066627
F2.5167934
tp561
Rp562
ag4
(F73.063043
F2.5062507
tp563
Rp564
ag4
(F73.059596
F2.4959472
tp565
Rp566
ag4
(F73.056148
F2.4856436
tp567
Rp568
ag4
(F73.0527
F2.47534
tp569
Rp570
ag4
(F73.04925
F2.4650365
tp571
Rp572
ag4
(F73.0458
F2.454733
tp573
Rp574
ag4
(F73.042506
F2.444623
tp575
Rp576
ag4
(F73.039347
F2.4346796
tp577
Rp578
ag4
(F73.036188
F2.4247361
tp579
Rp580
ag4
(F73.033091
F2.4148693
tp581
Rp582
ag4
(F73.030016
F2.4050306
tp583
Rp584
ag4
(F73.026941
F2.3951919
tp585
Rp586
ag4
(F73.023904
F2.3853876
tp587
Rp588
ag4
(F73.02087
F2.375586
tp589
Rp590
ag4
(F73.017886
F2.3658313
tp591
Rp592
ag4
(F73.015276
F2.3564244
tp593
Rp594
ag4
(F73.012666
F2.3470174
tp595
Rp596
ag4
(F73.010057
F2.3376105
tp597
Rp598
ag4
(F73.00745
F2.3282036
tp599
Rp600
ag4
(F73.004842
F2.3187967
tp601
Rp602
ag4
(F73.002315
F2.3094655
tp603
Rp604
ag4
(F72.999865
F2.3002082
tp605
Rp606
ag4
(F72.997416
F2.2909509
tp607
Rp608
ag4
(F72.995172
F2.2818846
tp609
Rp610
ag4
(F72.993016
F2.2729002
tp611
Rp612
ag4
(F72.99086
F2.2639157
tp613
Rp614
ag4
(F72.988704
F2.2549313
tp615
Rp616
ag4
(F72.986548
F2.2459469
tp617
Rp618
ag4
(F72.984424
F2.236983
tp619
Rp620
ag4
(F72.982638
F2.2282331
tp621
Rp622
ag4
(F72.980852
F2.2194831
tp623
Rp624
ag4
(F72.979142
F2.2107814
tp625
Rp626
ag4
(F72.977628
F2.2022028
tp627
Rp628
ag4
(F72.976114
F2.1936243
tp629
Rp630
ag4
(F72.974598
F2.1850457
tp631
Rp632
ag4
(F72.973081
F2.176467
tp633
Rp634
ag4
(F72.971564
F2.1678884
tp635
Rp636
ag4
(F72.970463
F2.1595039
tp637
Rp638
ag4
(F72.969569
F2.1512157
tp639
Rp640
ag4
(F72.968674
F2.1429274
tp641
Rp642
ag4
(F72.967951
F2.1347197
tp643
Rp644
ag4
(F72.967255
F2.1265248
tp645
Rp646
ag4
(F72.966559
F2.1183299
tp647
Rp648
ag4
(F72.965863
F2.1101349
tp649
Rp650
ag4
(F72.965167
F2.10194
tp651
Rp652
ag4
(F72.964735
F2.0938269
tp653
Rp654
ag4
(F72.965094
F2.0859597
tp655
Rp656
ag4
(F72.965453
F2.0780925
tp657
Rp658
ag4
(F72.965869
F2.0702434
tp659
Rp660
ag4
(F72.966359
F2.0624168
tp661
Rp662
ag4
(F72.966848
F2.0545902
tp663
Rp664
ag4
(F72.967337
F2.0467635
tp665
Rp666
ag4
(F72.967827
F2.0389369
tp667
Rp668
ag4
(F72.968316
F2.0311102
tp669
Rp670
ag4
(F72.970207
F2.0235667
tp671
Rp672
ag4
(F72.972382
F2.0160806
tp673
Rp674
ag4
(F72.974558
F2.0085947
tp675
Rp676
ag4
(F72.976771
F2.0011168
tp677
Rp678
ag4
(F72.978984
F1.9936388
tp679
Rp680
ag4
(F72.981209
F1.9861621
tp681
Rp682
ag4
(F72.983476
F1.9786898
tp683
Rp684
ag4
(F72.985743
F1.9712175
tp685
Rp686
ag4
(F72.989265
F1.9638831
tp687
Rp688
ag4
(F72.994572
F1.9567453
tp689
Rp690
ag4
(F72.999878
F1.9496074
tp691
Rp692
ag4
(F73.005185
F1.9424696
tp693
Rp694
ag4
(F73.010492
F1.9353317
tp695
Rp696
ag4
(F73.015799
F1.9281938
tp697
Rp698
ag4
(F73.021156
F1.9210582
tp699
Rp700
ag4
(F73.026526
F1.913923
tp701
Rp702
ag4
(F73.031895
F1.9067879
tp703
Rp704
ag4
(F73.044624
F1.8999658
tp705
Rp706
ag4
(F73.057399
F1.8931456
tp707
Rp708
ag4
(F73.070175
F1.8863255
tp709
Rp710
ag4
(F73.082953
F1.8795054
tp711
Rp712
ag4
(F73.095731
F1.8726852
tp713
Rp714
ag4
(F73.108508
F1.8658651
tp715
Rp716
ag4
(F73.121283
F1.859045
tp717
Rp718
ag4
(F73.134058
F1.8522249
tp719
Rp720
ag4
(F73.1642
F1.8455741
tp721
Rp722
ag4
(F73.207177
F1.8390485
tp723
Rp724
ag4
(F73.250155
F1.8325229
tp725
Rp726
ag4
(F73.294311
F1.8260087
tp727
Rp728
ag4
(F73.338822
F1.819498
tp729
Rp730
ag4
(F73.383333
F1.8129873
tp731
Rp732
ag4
(F73.427846
F1.8064767
tp733
Rp734
ag4
(F73.47236
F1.799966
tp735
Rp736
ag4
(F73.505899
F1.7934939
tp737
Rp738
ag4
(F73.480177
F1.7872304
tp739
Rp740
ag4
(F73.454455
F1.7809668
tp741
Rp742
ag4
(F73.424238
F1.7747191
tp743
Rp744
ag4
(F73.385673
F1.7685008
tp745
Rp746
ag4
(F73.347109
F1.7622824
tp747
Rp748
ag4
(F73.308542
F1.7560641
tp749
Rp750
ag4
(F73.269974
F1.7498457
tp751
Rp752
ag4
(F73.231407
F1.7436273
tp753
Rp754
ag4
(F73.186555
F1.7375514
tp755
Rp756
ag4
(F73.139467
F1.7315262
tp757
Rp758
ag4
(F73.092379
F1.725501
tp759
Rp760
ag4
(F73.041708
F1.719557
tp761
Rp762
ag4
(F72.990773
F1.713619
tp763
Rp764
ag4
(F72.939838
F1.707681
tp765
Rp766
ag4
(F72.888903
F1.701743
tp767
Rp768
ag4
(F72.837968
F1.695805
tp769
Rp770
ag4
(F72.792951
F1.6899084
tp771
Rp772
ag4
(F72.760581
F1.6841004
tp773
Rp774
ag4
(F72.728212
F1.6782923
tp775
Rp776
ag4
(F72.706068
F1.6725559
tp777
Rp778
ag4
(F72.693649
F1.6668876
tp779
Rp780
ag4
(F72.68123
F1.6612193
tp781
Rp782
ag4
(F72.668812
F1.655551
tp783
Rp784
ag4
(F72.656396
F1.6498826
tp785
Rp786
ag4
(F72.64398
F1.6442143
tp787
Rp788
ag4
(F72.631463
F1.6385969
tp789
Rp790
ag4
(F72.618935
F1.6329852
tp791
Rp792
ag4
(F72.606371
F1.6273922
tp793
Rp794
ag4
(F72.59346
F1.6219789
tp795
Rp796
ag4
(F72.580549
F1.6165657
tp797
Rp798
ag4
(F72.567638
F1.6111525
tp799
Rp800
ag4
(F72.554727
F1.6057393
tp801
Rp802
ag4
(F72.541815
F1.6003261
tp803
Rp804
ag4
(F72.528904
F1.5949129
tp805
Rp806
ag4
(F72.515993
F1.5894996
tp807
Rp808
ag4
(F72.503082
F1.5840864
tp809
Rp810
ag4
(F72.491496
F1.5788244
tp811
Rp812
ag4
(F72.480547
F1.5736351
tp813
Rp814
ag4
(F72.469599
F1.5684458
tp815
Rp816
ag4
(F72.458816
F1.5632758
tp817
Rp818
ag4
(F72.448058
F1.5581086
tp819
Rp820
ag4
(F72.437301
F1.5529414
tp821
Rp822
ag4
(F72.426545
F1.5477743
tp823
Rp824
ag4
(F72.41579
F1.5426072
tp825
Rp826
ag4
(F72.405256
F1.5374724
tp827
Rp828
ag4
(F72.395362
F1.5324318
tp829
Rp830
ag4
(F72.385469
F1.5273911
tp831
Rp832
ag4
(F72.375902
F1.5223981
tp833
Rp834
ag4
(F72.366735
F1.5174635
tp835
Rp836
ag4
(F72.357567
F1.5125288
tp837
Rp838
ag4
(F72.348398
F1.5075941
tp839
Rp840
ag4
(F72.339228
F1.5026594
tp841
Rp842
ag4
(F72.330057
F1.4977247
tp843
Rp844
ag4
(F72.321006
F1.4928133
tp845
Rp846
ag4
(F72.311977
F1.4879063
tp847
Rp848
ag4
(F72.302979
F1.4830055
tp849
Rp850
ag4
(F72.294942
F1.4782947
tp851
Rp852
ag4
(F72.286906
F1.4735838
tp853
Rp854
ag4
(F72.278869
F1.468873
tp855
Rp856
ag4
(F72.270829
F1.4641622
tp857
Rp858
ag4
(F72.26279
F1.4594514
tp859
Rp860
ag4
(F72.254752
F1.4547405
tp861
Rp862
ag4
(F72.246716
F1.4500297
tp863
Rp864
ag4
(F72.238679
F1.4453188
tp865
Rp866
ag4
(F72.231014
F1.4406931
tp867
Rp868
ag4
(F72.223584
F1.4361211
tp869
Rp870
ag4
(F72.216153
F1.4315492
tp871
Rp872
ag4
(F72.208986
F1.427038
tp873
Rp874
ag4
(F72.201882
F1.4225415
tp875
Rp876
ag4
(F72.194778
F1.4180449
tp877
Rp878
asS'fhbar'
p879
(lp880
g4
(F73.272967
F13.831081
tp881
Rp882
ag4
(F73.317072
F13.699996
tp883
Rp884
ag4
(F73.356859
F13.573659
tp885
Rp886
ag4
(F73.396506
F13.447474
tp887
Rp888
ag4
(F73.435508
F13.322048
tp889
Rp890
ag4
(F73.471185
F13.200525
tp891
Rp892
ag4
(F73.506863
F13.079003
tp893
Rp894
ag4
(F73.541202
F12.959061
tp895
Rp896
ag4
(F73.573123
F12.841977
tp897
Rp898
ag4
(F73.605043
F12.724893
tp899
Rp900
ag4
(F73.635192
F12.610127
tp901
Rp902
ag4
(F73.66389
F12.497257
tp903
Rp904
ag4
(F73.692589
F12.384388
tp905
Rp906
ag4
(F73.719102
F12.274524
tp907
Rp908
ag4
(F73.744862
F12.165695
tp909
Rp910
ag4
(F73.770622
F12.056866
tp911
Rp912
ag4
(F73.793512
F11.951615
tp913
Rp914
ag4
(F73.81621
F11.846602
tp915
Rp916
ag4
(F73.838543
F11.742137
tp917
Rp918
ag4
(F73.858452
F11.6413
tp919
Rp920
ag4
(F73.878361
F11.540463
tp921
Rp922
ag4
(F73.897574
F11.440749
tp923
Rp924
ag4
(F73.915341
F11.343368
tp925
Rp926
ag4
(F73.933107
F11.245987
tp927
Rp928
ag4
(F73.949814
F11.150322
tp929
Rp930
ag4
(F73.965536
F11.05625
tp931
Rp932
ag4
(F73.981258
F10.962178
tp933
Rp934
ag4
(F73.995669
F10.870319
tp935
Rp936
ag4
(F74.009551
F10.779354
tp937
Rp938
ag4
(F74.023433
F10.688389
tp939
Rp940
ag4
(F74.035743
F10.600075
tp941
Rp942
ag4
(F74.04789
F10.512035
tp943
Rp944
ag4
(F74.059861
F10.424273
tp945
Rp946
ag4
(F74.070252
F10.339018
tp947
Rp948
ag4
(F74.080643
F10.253763
tp949
Rp950
ag4
(F74.090538
F10.16949
tp951
Rp952
ag4
(F74.099241
F10.087581
tp953
Rp954
ag4
(F74.107943
F10.005672
tp955
Rp956
ag4
(F74.116063
F9.9250861
tp957
Rp958
ag4
(F74.123569
F9.8458913
tp959
Rp960
ag4
(F74.131076
F9.7666965
tp961
Rp962
ag4
(F74.137771
F9.6891408
tp963
Rp964
ag4
(F74.144086
F9.6123521
tp965
Rp966
ag4
(F74.150402
F9.5355633
tp967
Rp968
ag4
(F74.155735
F9.4607589
tp969
Rp970
ag4
(F74.160928
F9.3862379
tp971
Rp972
ag4
(F74.166049
F9.3118743
tp973
Rp974
ag4
(F74.170198
F9.2396442
tp975
Rp976
ag4
(F74.174346
F9.1674141
tp977
Rp978
ag4
(F74.178158
F9.0959323
tp979
Rp980
ag4
(F74.181024
F9.026553
tp981
Rp982
ag4
(F74.183889
F8.9571738
tp983
Rp984
ag4
(F74.18641
F8.8886892
tp985
Rp986
ag4
(F74.18852
F8.8212709
tp987
Rp988
ag4
(F74.190629
F8.7538525
tp989
Rp990
ag4
(F74.192315
F8.6876316
tp991
Rp992
ag4
(F74.193772
F8.6220555
tp993
Rp994
ag4
(F74.195229
F8.5564794
tp995
Rp996
ag4
(F74.196159
F8.4925765
tp997
Rp998
ag4
(F74.196991
F8.4289833
tp999
Rp1000
ag4
(F74.197781
F8.36548
tp1001
Rp1002
ag4
(F74.197496
F8.3042817
tp1003
Rp1004
ag4
(F74.19721
F8.2430835
tp1005
Rp1006
ag4
(F74.196826
F8.1822474
tp1007
Rp1008
ag4
(F74.196114
F8.1226154
tp1009
Rp1010
ag4
(F74.195401
F8.0629835
tp1011
Rp1012
ag4
(F74.194525
F8.0039851
tp1013
Rp1014
ag4
(F74.193427
F7.9458441
tp1015
Rp1016
ag4
(F74.192328
F7.887703
tp1017
Rp1018
ag4
(F74.190683
F7.8309452
tp1019
Rp1020
ag4
(F74.188701
F7.7750397
tp1021
Rp1022
ag4
(F74.186719
F7.7191343
tp1023
Rp1024
ag4
(F74.184444
F7.6644554
tp1025
Rp1026
ag4
(F74.1821
F7.6100595
tp1027
Rp1028
ag4
(F74.179754
F7.5556713
tp1029
Rp1030
ag4
(F74.177076
F7.502516
tp1031
Rp1032
ag4
(F74.174399
F7.4493607
tp1033
Rp1034
ag4
(F74.171604
F7.396576
tp1035
Rp1036
ag4
(F74.168341
F7.3452735
tp1037
Rp1038
ag4
(F74.165079
F7.293971
tp1039
Rp1040
ag4
(F74.161672
F7.2432676
tp1041
Rp1042
ag4
(F74.158042
F7.1934866
tp1043
Rp1044
ag4
(F74.154413
F7.1437055
tp1045
Rp1046
ag4
(F74.150659
F7.0945393
tp1047
Rp1048
ag4
(F74.146817
F7.0458048
tp1049
Rp1050
ag4
(F74.142976
F6.9970703
tp1051
Rp1052
ag4
(F74.138941
F6.9496538
tp1053
Rp1054
ag4
(F74.134852
F6.9026062
tp1055
Rp1056
ag4
(F74.130763
F6.8555587
tp1057
Rp1058
ag4
(F74.126239
F6.8098155
tp1059
Rp1060
ag4
(F74.121704
F6.7641057
tp1061
Rp1062
ag4
(F74.117127
F6.7185434
tp1063
Rp1064
ag4
(F74.112339
F6.6737072
tp1065
Rp1066
ag4
(F74.107552
F6.628871
tp1067
Rp1068
ag4
(F74.102672
F6.5846432
tp1069
Rp1070
ag4
(F74.097632
F6.5414855
tp1071
Rp1072
ag4
(F74.092591
F6.4983278
tp1073
Rp1074
ag4
(F74.087469
F6.4557189
tp1075
Rp1076
ag4
(F74.082282
F6.4135479
tp1077
Rp1078
ag4
(F74.077095
F6.3713769
tp1079
Rp1080
ag4
(F74.071811
F6.3298766
tp1081
Rp1082
ag4
(F74.066496
F6.2885999
tp1083
Rp1084
ag4
(F74.061181
F6.2473231
tp1085
Rp1086
ag4
(F74.055638
F6.2075237
tp1087
Rp1088
ag4
(F74.050081
F6.1678122
tp1089
Rp1090
ag4
(F74.044511
F6.1281865
tp1091
Rp1092
ag4
(F74.038858
F6.0890982
tp1093
Rp1094
ag4
(F74.033206
F6.0500098
tp1095
Rp1096
ag4
(F74.027495
F6.0113281
tp1097
Rp1098
ag4
(F74.021663
F5.9734671
tp1099
Rp1100
ag4
(F74.015831
F5.9356061
tp1101
Rp1102
ag4
(F74.009918
F5.8982891
tp1103
Rp1104
ag4
(F74.003932
F5.8614645
tp1105
Rp1106
ag4
(F73.997945
F5.8246398
tp1107
Rp1108
ag4
(F73.991892
F5.7882729
tp1109
Rp1110
ag4
(F73.985813
F5.7520851
tp1111
Rp1112
ag4
(F73.979734
F5.7158973
tp1113
Rp1114
ag4
(F73.973595
F5.6809983
tp1115
Rp1116
ag4
(F73.967451
F5.6462229
tp1117
Rp1118
ag4
(F73.961301
F5.611493
tp1119
Rp1120
ag4
(F73.955105
F5.5771457
tp1121
Rp1122
ag4
(F73.948909
F5.5427985
tp1123
Rp1124
ag4
(F73.942659
F5.5088045
tp1125
Rp1126
ag4
(F73.936281
F5.4756348
tp1127
Rp1128
ag4
(F73.929902
F5.4424652
tp1129
Rp1130
ag4
(F73.923511
F5.4096343
tp1131
Rp1132
ag4
(F73.917106
F5.3771507
tp1133
Rp1134
ag4
(F73.9107
F5.3446672
tp1135
Rp1136
ag4
(F73.904273
F5.312711
tp1137
Rp1138
ag4
(F73.897835
F5.2809947
tp1139
Rp1140
ag4
(F73.891397
F5.2492783
tp1141
Rp1142
ag4
(F73.884925
F5.2183852
tp1143
Rp1144
ag4
(F73.878449
F5.1876031
tp1145
Rp1146
ag4
(F73.871972
F5.1568509
tp1147
Rp1148
ag4
(F73.86548
F5.1264683
tp1149
Rp1150
ag4
(F73.858988
F5.0960856
tp1151
Rp1152
ag4
(F73.852483
F5.0660253
tp1153
Rp1154
ag4
(F73.845944
F5.0368423
tp1155
Rp1156
ag4
(F73.839406
F5.0076593
tp1157
Rp1158
ag4
(F73.832862
F4.9785798
tp1159
Rp1160
ag4
(F73.826313
F4.9496208
tp1161
Rp1162
ag4
(F73.819764
F4.9206617
tp1163
Rp1164
ag4
(F73.813184
F4.8924818
tp1165
Rp1166
ag4
(F73.806588
F4.8647102
tp1167
Rp1168
ag4
(F73.799993
F4.8369385
tp1169
Rp1170
ag4
(F73.793418
F4.8093855
tp1171
Rp1172
ag4
(F73.786847
F4.7818711
tp1173
Rp1174
ag4
(F73.780279
F4.7543984
tp1175
Rp1176
ag4
(F73.77379
F4.7278391
tp1177
Rp1178
ag4
(F73.7673
F4.7012798
tp1179
Rp1180
ag4
(F73.760807
F4.6748062
tp1181
Rp1182
ag4
(F73.754301
F4.6486076
tp1183
Rp1184
ag4
(F73.747795
F4.6224091
tp1185
Rp1186
ag4
(F73.741277
F4.5965359
tp1187
Rp1188
ag4
(F73.734744
F4.5710918
tp1189
Rp1190
ag4
(F73.728211
F4.5456477
tp1191
Rp1192
ag4
(F73.721666
F4.5204905
tp1193
Rp1194
ag4
(F73.715114
F4.4955055
tp1195
Rp1196
ag4
(F73.708562
F4.4705205
tp1197
Rp1198
ag4
(F73.70199
F4.4460906
tp1199
Rp1200
ag4
(F73.695413
F4.4217836
tp1201
Rp1202
ag4
(F73.688837
F4.3974826
tp1203
Rp1204
ag4
(F73.682307
F4.3736542
tp1205
Rp1206
ag4
(F73.675776
F4.3498259
tp1207
Rp1208
ag4
(F73.669258
F4.3261166
tp1209
Rp1210
ag4
(F73.662785
F4.3028654
tp1211
Rp1212
ag4
(F73.656311
F4.2796143
tp1213
Rp1214
ag4
(F73.649859
F4.2565578
tp1215
Rp1216
ag4
(F73.643437
F4.2337933
tp1217
Rp1218
ag4
(F73.637016
F4.2110289
tp1219
Rp1220
ag4
(F73.630625
F4.1885888
tp1221
Rp1222
ag4
(F73.624255
F4.1663708
tp1223
Rp1224
ag4
(F73.617885
F4.1441528
tp1225
Rp1226
ag4
(F73.611502
F4.1222605
tp1227
Rp1228
ag4
(F73.605116
F4.100456
tp1229
Rp1230
ag4
(F73.598729
F4.0786516
tp1231
Rp1232
ag4
(F73.592322
F4.057329
tp1233
Rp1234
ag4
(F73.585914
F4.0360157
tp1235
Rp1236
ag4
(F73.579523
F4.0147759
tp1237
Rp1238
ag4
(F73.573216
F3.9938833
tp1239
Rp1240
ag4
(F73.566908
F3.9729906
tp1241
Rp1242
ag4
(F73.560652
F3.9523207
tp1243
Rp1244
ag4
(F73.554483
F3.9320322
tp1245
Rp1246
ag4
(F73.548315
F3.9117436
tp1247
Rp1248
ag4
(F73.54214
F3.8916112
tp1249
Rp1250
ag4
(F73.53596
F3.8716002
tp1251
Rp1252
ag4
(F73.529781
F3.8515893
tp1253
Rp1254
ag4
(F73.523582
F3.8320036
tp1255
Rp1256
ag4
(F73.517378
F3.8125551
tp1257
Rp1258
ag4
(F73.511174
F3.7931065
tp1259
Rp1260
ag4
(F73.505017
F3.7738347
tp1261
Rp1262
ag4
(F73.498861
F3.7545721
tp1263
Rp1264
ag4
(F73.492732
F3.7354061
tp1265
Rp1266
ag4
(F73.486759
F3.7168146
tp1267
Rp1268
ag4
(F73.480786
F3.698223
tp1269
Rp1270
ag4
(F73.474815
F3.6796508
tp1271
Rp1272
ag4
(F73.468848
F3.6611164
tp1273
Rp1274
ag4
(F73.46288
F3.642582
tp1275
Rp1276
ag4
(F73.45696
F3.6244561
tp1277
Rp1278
ag4
(F73.451082
F3.6066908
tp1279
Rp1280
ag4
(F73.445204
F3.5889254
tp1281
Rp1282
ag4
(F73.439327
F3.57116
tp1283
Rp1284
ag4
(F73.433449
F3.5533945
tp1285
Rp1286
ag4
(F73.427571
F3.5356291
tp1287
Rp1288
ag4
(F73.421768
F3.5185056
tp1289
Rp1290
ag4
(F73.415972
F3.5014389
tp1291
Rp1292
ag4
(F73.410177
F3.4843821
tp1293
Rp1294
ag4
(F73.404394
F3.4674044
tp1295
Rp1296
ag4
(F73.398611
F3.4504267
tp1297
Rp1298
ag4
(F73.392873
F3.4336018
tp1299
Rp1300
ag4
(F73.387234
F3.4171229
tp1301
Rp1302
ag4
(F73.381596
F3.400644
tp1303
Rp1304
ag4
(F73.375994
F3.3842884
tp1305
Rp1306
ag4
(F73.370428
F3.368056
tp1307
Rp1308
ag4
(F73.364863
F3.3518237
tp1309
Rp1310
ag4
(F73.359323
F3.3357975
tp1311
Rp1312
ag4
(F73.353793
F3.3198622
tp1313
Rp1314
ag4
(F73.348263
F3.303927
tp1315
Rp1316
ag4
(F73.342779
F3.2883626
tp1317
Rp1318
ag4
(F73.337301
F3.2728452
tp1319
Rp1320
ag4
(F73.331825
F3.2573348
tp1321
Rp1322
ag4
(F73.326374
F3.2419041
tp1323
Rp1324
ag4
(F73.320923
F3.2264735
tp1325
Rp1326
ag4
(F73.315522
F3.2112091
tp1327
Rp1328
ag4
(F73.310253
F3.1963831
tp1329
Rp1330
ag4
(F73.304984
F3.1815571
tp1331
Rp1332
ag4
(F73.299716
F3.1667311
tp1333
Rp1334
ag4
(F73.29445
F3.1519051
tp1335
Rp1336
ag4
(F73.289184
F3.1370791
tp1337
Rp1338
ag4
(F73.283961
F3.1225979
tp1339
Rp1340
ag4
(F73.27876
F3.1082924
tp1341
Rp1342
ag4
(F73.273559
F3.0939868
tp1343
Rp1344
ag4
(F73.268372
F3.0797936
tp1345
Rp1346
ag4
(F73.263188
F3.0656192
tp1347
Rp1348
ag4
(F73.25801
F3.0514586
tp1349
Rp1350
ag4
(F73.252964
F3.037558
tp1351
Rp1352
ag4
(F73.247918
F3.0236575
tp1353
Rp1354
ag4
(F73.242917
F3.009844
tp1355
Rp1356
ag4
(F73.238053
F2.9963008
tp1357
Rp1358
ag4
(F73.233189
F2.9827575
tp1359
Rp1360
ag4
(F73.228326
F2.9692224
tp1361
Rp1362
ag4
(F73.223465
F2.955698
tp1363
Rp1364
ag4
(F73.218604
F2.9421736
tp1365
Rp1366
ag4
(F73.21379
F2.9290193
tp1367
Rp1368
ag4
(F73.209002
F2.9160812
tp1369
Rp1370
ag4
(F73.204214
F2.9031431
tp1371
Rp1372
ag4
(F73.199429
F2.8902049
tp1373
Rp1374
ag4
(F73.194644
F2.8772667
tp1375
Rp1376
ag4
(F73.189862
F2.8643349
tp1377
Rp1378
ag4
(F73.185254
F2.8517357
tp1379
Rp1380
ag4
(F73.180646
F2.8391366
tp1381
Rp1382
ag4
(F73.176065
F2.8265877
tp1383
Rp1384
ag4
(F73.171584
F2.8142248
tp1385
Rp1386
ag4
(F73.167104
F2.8018618
tp1387
Rp1388
ag4
(F73.162637
F2.7895228
tp1389
Rp1390
ag4
(F73.158189
F2.7772186
tp1391
Rp1392
ag4
(F73.153741
F2.7649145
tp1393
Rp1394
ag4
(F73.149452
F2.7529017
tp1395
Rp1396
ag4
(F73.145267
F2.7410832
tp1397
Rp1398
ag4
(F73.141083
F2.7292647
tp1399
Rp1400
ag4
(F73.136901
F2.7174462
tp1401
Rp1402
ag4
(F73.13272
F2.7056277
tp1403
Rp1404
ag4
(F73.128539
F2.6938092
tp1405
Rp1406
ag4
(F73.124457
F2.6822981
tp1407
Rp1408
ag4
(F73.120376
F2.6707909
tp1409
Rp1410
ag4
(F73.116309
F2.6593234
tp1411
Rp1412
ag4
(F73.112304
F2.6480358
tp1413
Rp1414
ag4
(F73.108299
F2.6367481
tp1415
Rp1416
ag4
(F73.104297
F2.6254649
tp1417
Rp1418
ag4
(F73.100298
F2.6141894
tp1419
Rp1420
ag4
(F73.096298
F2.6029139
tp1421
Rp1422
ag4
(F73.092457
F2.5919152
tp1423
Rp1424
ag4
(F73.088735
F2.5811265
tp1425
Rp1426
ag4
(F73.085013
F2.5703378
tp1427
Rp1428
ag4
(F73.081291
F2.5595492
tp1429
Rp1430
ag4
(F73.077569
F2.5487605
tp1431
Rp1432
ag4
(F73.073847
F2.5379719
tp1433
Rp1434
ag4
(F73.070234
F2.5273782
tp1435
Rp1436
ag4
(F73.066627
F2.5167934
tp1437
Rp1438
ag4
(F73.063043
F2.5062507
tp1439
Rp1440
ag4
(F73.059596
F2.4959472
tp1441
Rp1442
ag4
(F73.056148
F2.4856436
tp1443
Rp1444
ag4
(F73.0527
F2.47534
tp1445
Rp1446
ag4
(F73.04925
F2.4650365
tp1447
Rp1448
ag4
(F73.0458
F2.454733
tp1449
Rp1450
ag4
(F73.042506
F2.444623
tp1451
Rp1452
ag4
(F73.039347
F2.4346796
tp1453
Rp1454
ag4
(F73.036188
F2.4247361
tp1455
Rp1456
ag4
(F73.033091
F2.4148693
tp1457
Rp1458
ag4
(F73.030016
F2.4050306
tp1459
Rp1460
ag4
(F73.026941
F2.3951919
tp1461
Rp1462
ag4
(F73.023904
F2.3853876
tp1463
Rp1464
ag4
(F73.02087
F2.375586
tp1465
Rp1466
ag4
(F73.017886
F2.3658313
tp1467
Rp1468
ag4
(F73.015276
F2.3564244
tp1469
Rp1470
ag4
(F73.012666
F2.3470174
tp1471
Rp1472
ag4
(F73.010057
F2.3376105
tp1473
Rp1474
ag4
(F73.00745
F2.3282036
tp1475
Rp1476
ag4
(F73.004842
F2.3187967
tp1477
Rp1478
ag4
(F73.002315
F2.3094655
tp1479
Rp1480
ag4
(F72.999865
F2.3002082
tp1481
Rp1482
ag4
(F72.997416
F2.2909509
tp1483
Rp1484
ag4
(F72.995172
F2.2818846
tp1485
Rp1486
ag4
(F72.993016
F2.2729002
tp1487
Rp1488
ag4
(F72.99086
F2.2639157
tp1489
Rp1490
ag4
(F72.988704
F2.2549313
tp1491
Rp1492
ag4
(F72.986548
F2.2459469
tp1493
Rp1494
ag4
(F72.984424
F2.236983
tp1495
Rp1496
ag4
(F72.982638
F2.2282331
tp1497
Rp1498
ag4
(F72.980852
F2.2194831
tp1499
Rp1500
ag4
(F72.979142
F2.2107814
tp1501
Rp1502
ag4
(F72.977628
F2.2022028
tp1503
Rp1504
ag4
(F72.976114
F2.1936243
tp1505
Rp1506
ag4
(F72.974598
F2.1850457
tp1507
Rp1508
ag4
(F72.973081
F2.176467
tp1509
Rp1510
ag4
(F72.971564
F2.1678884
tp1511
Rp1512
ag4
(F72.970463
F2.1595039
tp1513
Rp1514
ag4
(F72.969569
F2.1512157
tp1515
Rp1516
ag4
(F72.968674
F2.1429274
tp1517
Rp1518
ag4
(F72.967951
F2.1347197
tp1519
Rp1520
ag4
(F72.967255
F2.1265248
tp1521
Rp1522
ag4
(F72.966559
F2.1183299
tp1523
Rp1524
ag4
(F72.965863
F2.1101349
tp1525
Rp1526
ag4
(F72.965167
F2.10194
tp1527
Rp1528
ag4
(F72.964735
F2.0938269
tp1529
Rp1530
ag4
(F72.965094
F2.0859597
tp1531
Rp1532
ag4
(F72.965453
F2.0780925
tp1533
Rp1534
ag4
(F72.965869
F2.0702434
tp1535
Rp1536
ag4
(F72.966359
F2.0624168
tp1537
Rp1538
ag4
(F72.966848
F2.0545902
tp1539
Rp1540
ag4
(F72.967337
F2.0467635
tp1541
Rp1542
ag4
(F72.967827
F2.0389369
tp1543
Rp1544
ag4
(F72.968316
F2.0311102
tp1545
Rp1546
ag4
(F72.970207
F2.0235667
tp1547
Rp1548
ag4
(F72.972382
F2.0160806
tp1549
Rp1550
ag4
(F72.974558
F2.0085947
tp1551
Rp1552
ag4
(F72.976771
F2.0011168
tp1553
Rp1554
ag4
(F72.978984
F1.9936388
tp1555
Rp1556
ag4
(F72.981209
F1.9861621
tp1557
Rp1558
ag4
(F72.983476
F1.9786898
tp1559
Rp1560
ag4
(F72.985743
F1.9712175
tp1561
Rp1562
ag4
(F72.989265
F1.9638831
tp1563
Rp1564
ag4
(F72.994572
F1.9567453
tp1565
Rp1566
ag4
(F72.999878
F1.9496074
tp1567
Rp1568
ag4
(F73.005185
F1.9424696
tp1569
Rp1570
ag4
(F73.010492
F1.9353317
tp1571
Rp1572
ag4
(F73.015799
F1.9281938
tp1573
Rp1574
ag4
(F73.021156
F1.9210582
tp1575
Rp1576
ag4
(F73.026526
F1.913923
tp1577
Rp1578
ag4
(F73.031895
F1.9067879
tp1579
Rp1580
ag4
(F73.044624
F1.8999658
tp1581
Rp1582
ag4
(F73.057399
F1.8931456
tp1583
Rp1584
ag4
(F73.070175
F1.8863255
tp1585
Rp1586
ag4
(F73.082953
F1.8795054
tp1587
Rp1588
ag4
(F73.095731
F1.8726852
tp1589
Rp1590
ag4
(F73.108508
F1.8658651
tp1591
Rp1592
ag4
(F73.121283
F1.859045
tp1593
Rp1594
ag4
(F73.134058
F1.8522249
tp1595
Rp1596
ag4
(F73.1642
F1.8455741
tp1597
Rp1598
ag4
(F73.207177
F1.8390485
tp1599
Rp1600
ag4
(F73.250155
F1.8325229
tp1601
Rp1602
ag4
(F73.294311
F1.8260087
tp1603
Rp1604
ag4
(F73.338822
F1.819498
tp1605
Rp1606
ag4
(F73.383333
F1.8129873
tp1607
Rp1608
ag4
(F73.427846
F1.8064767
tp1609
Rp1610
ag4
(F73.47236
F1.799966
tp1611
Rp1612
ag4
(F73.505899
F1.7934939
tp1613
Rp1614
ag4
(F73.480177
F1.7872304
tp1615
Rp1616
ag4
(F73.454455
F1.7809668
tp1617
Rp1618
ag4
(F73.424238
F1.7747191
tp1619
Rp1620
ag4
(F73.385673
F1.7685008
tp1621
Rp1622
ag4
(F73.347109
F1.7622824
tp1623
Rp1624
ag4
(F73.308542
F1.7560641
tp1625
Rp1626
ag4
(F73.269974
F1.7498457
tp1627
Rp1628
ag4
(F73.231407
F1.7436273
tp1629
Rp1630
ag4
(F73.186555
F1.7375514
tp1631
Rp1632
ag4
(F73.139467
F1.7315262
tp1633
Rp1634
ag4
(F73.092379
F1.725501
tp1635
Rp1636
ag4
(F73.041708
F1.719557
tp1637
Rp1638
ag4
(F72.990773
F1.713619
tp1639
Rp1640
ag4
(F72.939838
F1.707681
tp1641
Rp1642
ag4
(F72.888903
F1.701743
tp1643
Rp1644
ag4
(F72.837968
F1.695805
tp1645
Rp1646
ag4
(F72.792951
F1.6899084
tp1647
Rp1648
ag4
(F72.760581
F1.6841004
tp1649
Rp1650
ag4
(F72.728212
F1.6782923
tp1651
Rp1652
ag4
(F72.706068
F1.6725559
tp1653
Rp1654
ag4
(F72.693649
F1.6668876
tp1655
Rp1656
ag4
(F72.68123
F1.6612193
tp1657
Rp1658
ag4
(F72.668812
F1.655551
tp1659
Rp1660
ag4
(F72.656396
F1.6498826
tp1661
Rp1662
ag4
(F72.64398
F1.6442143
tp1663
Rp1664
ag4
(F72.631463
F1.6385969
tp1665
Rp1666
ag4
(F72.618935
F1.6329852
tp1667
Rp1668
ag4
(F72.606371
F1.6273922
tp1669
Rp1670
ag4
(F72.59346
F1.6219789
tp1671
Rp1672
ag4
(F72.580549
F1.6165657
tp1673
Rp1674
ag4
(F72.567638
F1.6111525
tp1675
Rp1676
ag4
(F72.554727
F1.6057393
tp1677
Rp1678
ag4
(F72.541815
F1.6003261
tp1679
Rp1680
ag4
(F72.528904
F1.5949129
tp1681
Rp1682
ag4
(F72.515993
F1.5894996
tp1683
Rp1684
ag4
(F72.503082
F1.5840864
tp1685
Rp1686
ag4
(F72.491496
F1.5788244
tp1687
Rp1688
ag4
(F72.480547
F1.5736351
tp1689
Rp1690
ag4
(F72.469599
F1.5684458
tp1691
Rp1692
ag4
(F72.458816
F1.5632758
tp1693
Rp1694
ag4
(F72.448058
F1.5581086
tp1695
Rp1696
ag4
(F72.437301
F1.5529414
tp1697
Rp1698
ag4
(F72.426545
F1.5477743
tp1699
Rp1700
ag4
(F72.41579
F1.5426072
tp1701
Rp1702
ag4
(F72.405256
F1.5374724
tp1703
Rp1704
ag4
(F72.395362
F1.5324318
tp1705
Rp1706
ag4
(F72.385469
F1.5273911
tp1707
Rp1708
ag4
(F72.375902
F1.5223981
tp1709
Rp1710
ag4
(F72.366735
F1.5174635
tp1711
Rp1712
ag4
(F72.357567
F1.5125288
tp1713
Rp1714
ag4
(F72.348398
F1.5075941
tp1715
Rp1716
ag4
(F72.339228
F1.5026594
tp1717
Rp1718
ag4
(F72.330057
F1.4977247
tp1719
Rp1720
ag4
(F72.321006
F1.4928133
tp1721
Rp1722
ag4
(F72.311977
F1.4879063
tp1723
Rp1724
ag4
(F72.302979
F1.4830055
tp1725
Rp1726
ag4
(F72.294942
F1.4782947
tp1727
Rp1728
ag4
(F72.286906
F1.4735838
tp1729
Rp1730
ag4
(F72.278869
F1.468873
tp1731
Rp1732
ag4
(F72.270829
F1.4641622
tp1733
Rp1734
ag4
(F72.26279
F1.4594514
tp1735
Rp1736
ag4
(F72.254752
F1.4547405
tp1737
Rp1738
ag4
(F72.246716
F1.4500297
tp1739
Rp1740
ag4
(F72.238679
F1.4453188
tp1741
Rp1742
ag4
(F72.231014
F1.4406931
tp1743
Rp1744
ag4
(F72.223584
F1.4361211
tp1745
Rp1746
ag4
(F72.216153
F1.4315492
tp1747
Rp1748
ag4
(F72.208986
F1.427038
tp1749
Rp1750
ag4
(F72.201882
F1.4225415
tp1751
Rp1752
ag4
(F72.194778
F1.4180449
tp1753
Rp1754
asS'ev'
p1755
(lp1756
F3231.6258
aF3249.4432
aF3267.2606
aF3285.078
aF3302.8953
aF3320.7127
aF3338.5301
aF3356.3474
aF3374.1648
aF3391.9822
aF3409.7996
aF3427.6169
aF3445.4343
aF3463.2517
aF3481.069
aF3498.8864
aF3516.7038
aF3534.5212
aF3552.3385
aF3570.1559
aF3587.9733
aF3605.7906
aF3623.608
aF3641.4254
aF3659.2428
aF3677.0601
aF3694.8775
aF3712.6949
aF3730.5122
aF3748.3296
aF3766.147
aF3783.9644
aF3801.7817
aF3819.5991
aF3837.4165
aF3855.2339
aF3873.0512
aF3890.8686
aF3908.686
aF3926.5033
aF3944.3207
aF3962.1381
aF3979.9555
aF3997.7728
aF4015.5902
aF4033.4076
aF4051.2249
aF4069.0423
aF4086.8597
aF4104.6771
aF4122.4944
aF4140.3118
aF4158.1292
aF4175.9465
aF4193.7639
aF4211.5813
aF4229.3987
aF4247.216
aF4265.0334
aF4282.8508
aF4300.6682
aF4318.4855
aF4336.3029
aF4354.1203
aF4371.9376
aF4389.755
aF4407.5724
aF4425.3898
aF4443.2071
aF4461.0245
aF4478.8419
aF4496.6592
aF4514.4766
aF4532.294
aF4550.1114
aF4567.9287
aF4585.7461
aF4603.5635
aF4621.3808
aF4639.1982
aF4657.0156
aF4674.833
aF4692.6503
aF4710.4677
aF4728.2851
aF4746.1024
aF4763.9198
aF4781.7372
aF4799.5546
aF4817.3719
aF4835.1893
aF4853.0067
aF4870.8241
aF4888.6414
aF4906.4588
aF4924.2762
aF4942.0935
aF4959.9109
aF4977.7283
aF4995.5457
aF5013.363
aF5031.1804
aF5048.9978
aF5066.8151
aF5084.6325
aF5102.4499
aF5120.2673
aF5138.0846
aF5155.902
aF5173.7194
aF5191.5367
aF5209.3541
aF5227.1715
aF5244.9889
aF5262.8062
aF5280.6236
aF5298.441
aF5316.2584
aF5334.0757
aF5351.8931
aF5369.7105
aF5387.5278
aF5405.3452
aF5423.1626
aF5440.98
aF5458.7973
aF5476.6147
aF5494.4321
aF5512.2494
aF5530.0668
aF5547.8842
aF5565.7016
aF5583.5189
aF5601.3363
aF5619.1537
aF5636.971
aF5654.7884
aF5672.6058
aF5690.4232
aF5708.2405
aF5726.0579
aF5743.8753
aF5761.6927
aF5779.51
aF5797.3274
aF5815.1448
aF5832.9621
aF5850.7795
aF5868.5969
aF5886.4143
aF5904.2316
aF5922.049
aF5939.8664
aF5957.6837
aF5975.5011
aF5993.3185
aF6011.1359
aF6028.9532
aF6046.7706
aF6064.588
aF6082.4053
aF6100.2227
aF6118.0401
aF6135.8575
aF6153.6748
aF6171.4922
aF6189.3096
aF6207.1269
aF6224.9443
aF6242.7617
aF6260.5791
aF6278.3964
aF6296.2138
aF6314.0312
aF6331.8486
aF6349.6659
aF6367.4833
aF6385.3007
aF6403.118
aF6420.9354
aF6438.7528
aF6456.5702
aF6474.3875
aF6492.2049
aF6510.0223
aF6527.8396
aF6545.657
aF6563.4744
aF6581.2918
aF6599.1091
aF6616.9265
aF6634.7439
aF6652.5612
aF6670.3786
aF6688.196
aF6706.0134
aF6723.8307
aF6741.6481
aF6759.4655
aF6777.2829
aF6795.1002
aF6812.9176
aF6830.735
aF6848.5523
aF6866.3697
aF6884.1871
aF6902.0045
aF6919.8218
aF6937.6392
aF6955.4566
aF6973.2739
aF6991.0913
aF7008.9087
aF7026.7261
aF7044.5434
aF7062.3608
aF7080.1782
aF7097.9955
aF7115.8129
aF7133.6303
aF7151.4477
aF7169.265
aF7187.0824
aF7204.8998
aF7222.7171
aF7240.5345
aF7258.3519
aF7276.1693
aF7293.9866
aF7311.804
aF7329.6214
aF7347.4388
aF7365.2561
aF7383.0735
aF7400.8909
aF7418.7082
aF7436.5256
aF7454.343
aF7472.1604
aF7489.9777
aF7507.7951
aF7525.6125
aF7543.4298
aF7561.2472
aF7579.0646
aF7596.882
aF7614.6993
aF7632.5167
aF7650.3341
aF7668.1514
aF7685.9688
aF7703.7862
aF7721.6036
aF7739.4209
aF7757.2383
aF7775.0557
aF7792.8731
aF7810.6904
aF7828.5078
aF7846.3252
aF7864.1425
aF7881.9599
aF7899.7773
aF7917.5947
aF7935.412
aF7953.2294
aF7971.0468
aF7988.8641
aF8006.6815
aF8024.4989
aF8042.3163
aF8060.1336
aF8077.951
aF8095.7684
aF8113.5857
aF8131.4031
aF8149.2205
aF8167.0379
aF8184.8552
aF8202.6726
aF8220.49
aF8238.3073
aF8256.1247
aF8273.9421
aF8291.7595
aF8309.5768
aF8327.3942
aF8345.2116
aF8363.029
aF8380.8463
aF8398.6637
aF8416.4811
aF8434.2984
aF8452.1158
aF8469.9332
aF8487.7506
aF8505.5679
aF8523.3853
aF8541.2027
aF8559.02
aF8576.8374
aF8594.6548
aF8612.4722
aF8630.2895
aF8648.1069
aF8665.9243
aF8683.7416
aF8701.559
aF8719.3764
aF8737.1938
aF8755.0111
aF8772.8285
aF8790.6459
aF8808.4633
aF8826.2806
aF8844.098
aF8861.9154
aF8879.7327
aF8897.5501
aF8915.3675
aF8933.1849
aF8951.0022
aF8968.8196
aF8986.637
aF9004.4543
aF9022.2717
aF9040.0891
aF9057.9065
aF9075.7238
aF9093.5412
aF9111.3586
aF9129.1759
aF9146.9933
aF9164.8107
aF9182.6281
aF9200.4454
aF9218.2628
aF9236.0802
aF9253.8976
aF9271.7149
aF9289.5323
aF9307.3497
aF9325.167
aF9342.9844
aF9360.8018
aF9378.6192
aF9396.4365
aF9414.2539
aF9432.0713
aF9449.8886
aF9467.706
aF9485.5234
aF9503.3408
aF9521.1581
aF9538.9755
aF9556.7929
aF9574.6102
aF9592.4276
aF9610.245
aF9628.0624
aF9645.8797
aF9663.6971
aF9681.5145
aF9699.3318
aF9717.1492
aF9734.9666
aF9752.784
aF9770.6013
aF9788.4187
aF9806.2361
aF9824.0535
aF9841.8708
aF9859.6882
aF9877.5056
aF9895.3229
aF9913.1403
aF9930.9577
aF9948.7751
aF9966.5924
aF9984.4098
aF10002.227
aF10020.045
aF10037.862
aF10055.679
aF10073.497
aF10091.314
aF10109.131
aF10126.949
aF10144.766
aF10162.584
aF10180.401
aF10198.218
aF10216.036
aF10233.853
aF10251.67
aF10269.488
aF10287.305
aF10305.122
aF10322.94
aF10340.757
aF10358.575
aF10376.392
aF10394.209
aF10412.027
aF10429.844
aF10447.661
aF10465.479
aF10483.296
aF10501.114
aF10518.931
aF10536.748
aF10554.566
aF10572.383
aF10590.2
aF10608.018
aF10625.835
aF10643.653
aF10661.47
aF10679.287
aF10697.105
aF10714.922
aF10732.739
aF10750.557
aF10768.374
aF10786.192
aF10804.009
aF10821.826
aF10839.644
aF10857.461
aF10875.278
aF10893.096
aF10910.913
aF10928.731
aF10946.548
aF10964.365
aF10982.183
aF11000.0
asS'f000'
p1757
(lp1758
g4
(F114.55334
F13.831081
tp1759
Rp1760
ag4
(F114.59745
F13.699996
tp1761
Rp1762
ag4
(F114.63723
F13.573659
tp1763
Rp1764
ag4
(F114.67688
F13.447474
tp1765
Rp1766
ag4
(F114.71588
F13.322048
tp1767
Rp1768
ag4
(F114.75156
F13.200525
tp1769
Rp1770
ag4
(F114.78724
F13.079003
tp1771
Rp1772
ag4
(F114.82158
F12.959061
tp1773
Rp1774
ag4
(F114.8535
F12.841977
tp1775
Rp1776
ag4
(F114.88542
F12.724893
tp1777
Rp1778
ag4
(F114.91556
F12.610127
tp1779
Rp1780
ag4
(F114.94426
F12.497257
tp1781
Rp1782
ag4
(F114.97296
F12.384388
tp1783
Rp1784
ag4
(F114.99948
F12.274524
tp1785
Rp1786
ag4
(F115.02523
F12.165695
tp1787
Rp1788
ag4
(F115.05099
F12.056866
tp1789
Rp1790
ag4
(F115.07388
F11.951615
tp1791
Rp1792
ag4
(F115.09658
F11.846602
tp1793
Rp1794
ag4
(F115.11892
F11.742137
tp1795
Rp1796
ag4
(F115.13882
F11.6413
tp1797
Rp1798
ag4
(F115.15873
F11.540463
tp1799
Rp1800
ag4
(F115.17795
F11.440749
tp1801
Rp1802
ag4
(F115.19571
F11.343368
tp1803
Rp1804
ag4
(F115.21348
F11.245987
tp1805
Rp1806
ag4
(F115.23019
F11.150322
tp1807
Rp1808
ag4
(F115.24591
F11.05625
tp1809
Rp1810
ag4
(F115.26163
F10.962178
tp1811
Rp1812
ag4
(F115.27604
F10.870319
tp1813
Rp1814
ag4
(F115.28992
F10.779354
tp1815
Rp1816
ag4
(F115.30381
F10.688389
tp1817
Rp1818
ag4
(F115.31612
F10.600075
tp1819
Rp1820
ag4
(F115.32826
F10.512035
tp1821
Rp1822
ag4
(F115.34023
F10.424273
tp1823
Rp1824
ag4
(F115.35063
F10.339018
tp1825
Rp1826
ag4
(F115.36102
F10.253763
tp1827
Rp1828
ag4
(F115.37091
F10.16949
tp1829
Rp1830
ag4
(F115.37961
F10.087581
tp1831
Rp1832
ag4
(F115.38832
F10.005672
tp1833
Rp1834
ag4
(F115.39644
F9.9250861
tp1835
Rp1836
ag4
(F115.40394
F9.8458913
tp1837
Rp1838
ag4
(F115.41145
F9.7666965
tp1839
Rp1840
ag4
(F115.41814
F9.6891408
tp1841
Rp1842
ag4
(F115.42446
F9.6123521
tp1843
Rp1844
ag4
(F115.43077
F9.5355633
tp1845
Rp1846
ag4
(F115.43611
F9.4607589
tp1847
Rp1848
ag4
(F115.4413
F9.3862379
tp1849
Rp1850
ag4
(F115.44642
F9.3118743
tp1851
Rp1852
ag4
(F115.45057
F9.2396442
tp1853
Rp1854
ag4
(F115.45472
F9.1674141
tp1855
Rp1856
ag4
(F115.45853
F9.0959323
tp1857
Rp1858
ag4
(F115.4614
F9.026553
tp1859
Rp1860
ag4
(F115.46426
F8.9571738
tp1861
Rp1862
ag4
(F115.46678
F8.8886892
tp1863
Rp1864
ag4
(F115.46889
F8.8212709
tp1865
Rp1866
ag4
(F115.471
F8.7538525
tp1867
Rp1868
ag4
(F115.47269
F8.6876316
tp1869
Rp1870
ag4
(F115.47415
F8.6220555
tp1871
Rp1872
ag4
(F115.4756
F8.5564794
tp1873
Rp1874
ag4
(F115.47653
F8.4925765
tp1875
Rp1876
ag4
(F115.47736
F8.4289833
tp1877
Rp1878
ag4
(F115.47815
F8.36548
tp1879
Rp1880
ag4
(F115.47787
F8.3042817
tp1881
Rp1882
ag4
(F115.47758
F8.2430835
tp1883
Rp1884
ag4
(F115.4772
F8.1822474
tp1885
Rp1886
ag4
(F115.47649
F8.1226154
tp1887
Rp1888
ag4
(F115.47577
F8.0629835
tp1889
Rp1890
ag4
(F115.4749
F8.0039851
tp1891
Rp1892
ag4
(F115.4738
F7.9458441
tp1893
Rp1894
ag4
(F115.4727
F7.887703
tp1895
Rp1896
ag4
(F115.47106
F7.8309452
tp1897
Rp1898
ag4
(F115.46907
F7.7750397
tp1899
Rp1900
ag4
(F115.46709
F7.7191343
tp1901
Rp1902
ag4
(F115.46482
F7.6644554
tp1903
Rp1904
ag4
(F115.46247
F7.6100595
tp1905
Rp1906
ag4
(F115.46013
F7.5556713
tp1907
Rp1908
ag4
(F115.45745
F7.502516
tp1909
Rp1910
ag4
(F115.45477
F7.4493607
tp1911
Rp1912
ag4
(F115.45198
F7.396576
tp1913
Rp1914
ag4
(F115.44871
F7.3452735
tp1915
Rp1916
ag4
(F115.44545
F7.293971
tp1917
Rp1918
ag4
(F115.44204
F7.2432676
tp1919
Rp1920
ag4
(F115.43842
F7.1934866
tp1921
Rp1922
ag4
(F115.43479
F7.1437055
tp1923
Rp1924
ag4
(F115.43103
F7.0945393
tp1925
Rp1926
ag4
(F115.42719
F7.0458048
tp1927
Rp1928
ag4
(F115.42335
F6.9970703
tp1929
Rp1930
ag4
(F115.41931
F6.9496538
tp1931
Rp1932
ag4
(F115.41522
F6.9026062
tp1933
Rp1934
ag4
(F115.41114
F6.8555587
tp1935
Rp1936
ag4
(F115.40661
F6.8098155
tp1937
Rp1938
ag4
(F115.40208
F6.7641057
tp1939
Rp1940
ag4
(F115.3975
F6.7185434
tp1941
Rp1942
ag4
(F115.39271
F6.6737072
tp1943
Rp1944
ag4
(F115.38792
F6.628871
tp1945
Rp1946
ag4
(F115.38305
F6.5846432
tp1947
Rp1948
ag4
(F115.378
F6.5414855
tp1949
Rp1950
ag4
(F115.37296
F6.4983278
tp1951
Rp1952
ag4
(F115.36784
F6.4557189
tp1953
Rp1954
ag4
(F115.36265
F6.4135479
tp1955
Rp1956
ag4
(F115.35747
F6.3713769
tp1957
Rp1958
ag4
(F115.35218
F6.3298766
tp1959
Rp1960
ag4
(F115.34687
F6.2885999
tp1961
Rp1962
ag4
(F115.34155
F6.2473231
tp1963
Rp1964
ag4
(F115.33601
F6.2075237
tp1965
Rp1966
ag4
(F115.33045
F6.1678122
tp1967
Rp1968
ag4
(F115.32488
F6.1281865
tp1969
Rp1970
ag4
(F115.31923
F6.0890982
tp1971
Rp1972
ag4
(F115.31358
F6.0500098
tp1973
Rp1974
ag4
(F115.30787
F6.0113281
tp1975
Rp1976
ag4
(F115.30204
F5.9734671
tp1977
Rp1978
ag4
(F115.2962
F5.9356061
tp1979
Rp1980
ag4
(F115.29029
F5.8982891
tp1981
Rp1982
ag4
(F115.2843
F5.8614645
tp1983
Rp1984
ag4
(F115.27832
F5.8246398
tp1985
Rp1986
ag4
(F115.27226
F5.7882729
tp1987
Rp1988
ag4
(F115.26619
F5.7520851
tp1989
Rp1990
ag4
(F115.26011
F5.7158973
tp1991
Rp1992
ag4
(F115.25397
F5.6809983
tp1993
Rp1994
ag4
(F115.24782
F5.6462229
tp1995
Rp1996
ag4
(F115.24167
F5.611493
tp1997
Rp1998
ag4
(F115.23548
F5.5771457
tp1999
Rp2000
ag4
(F115.22928
F5.5427985
tp2001
Rp2002
ag4
(F115.22303
F5.5088045
tp2003
Rp2004
ag4
(F115.21665
F5.4756348
tp2005
Rp2006
ag4
(F115.21028
F5.4424652
tp2007
Rp2008
ag4
(F115.20388
F5.4096343
tp2009
Rp2010
ag4
(F115.19748
F5.3771507
tp2011
Rp2012
ag4
(F115.19107
F5.3446672
tp2013
Rp2014
ag4
(F115.18465
F5.312711
tp2015
Rp2016
ag4
(F115.17821
F5.2809947
tp2017
Rp2018
ag4
(F115.17177
F5.2492783
tp2019
Rp2020
ag4
(F115.1653
F5.2183852
tp2021
Rp2022
ag4
(F115.15882
F5.1876031
tp2023
Rp2024
ag4
(F115.15235
F5.1568509
tp2025
Rp2026
ag4
(F115.14585
F5.1264683
tp2027
Rp2028
ag4
(F115.13936
F5.0960856
tp2029
Rp2030
ag4
(F115.13286
F5.0660253
tp2031
Rp2032
ag4
(F115.12632
F5.0368423
tp2033
Rp2034
ag4
(F115.11978
F5.0076593
tp2035
Rp2036
ag4
(F115.11324
F4.9785798
tp2037
Rp2038
ag4
(F115.10669
F4.9496208
tp2039
Rp2040
ag4
(F115.10014
F4.9206617
tp2041
Rp2042
ag4
(F115.09356
F4.8924818
tp2043
Rp2044
ag4
(F115.08696
F4.8647102
tp2045
Rp2046
ag4
(F115.08037
F4.8369385
tp2047
Rp2048
ag4
(F115.07379
F4.8093855
tp2049
Rp2050
ag4
(F115.06722
F4.7818711
tp2051
Rp2052
ag4
(F115.06065
F4.7543984
tp2053
Rp2054
ag4
(F115.05416
F4.7278391
tp2055
Rp2056
ag4
(F115.04767
F4.7012798
tp2057
Rp2058
ag4
(F115.04118
F4.6748062
tp2059
Rp2060
ag4
(F115.03467
F4.6486076
tp2061
Rp2062
ag4
(F115.02817
F4.6224091
tp2063
Rp2064
ag4
(F115.02165
F4.5965359
tp2065
Rp2066
ag4
(F115.01512
F4.5710918
tp2067
Rp2068
ag4
(F115.00858
F4.5456477
tp2069
Rp2070
ag4
(F115.00204
F4.5204905
tp2071
Rp2072
ag4
(F114.99549
F4.4955055
tp2073
Rp2074
ag4
(F114.98893
F4.4705205
tp2075
Rp2076
ag4
(F114.98236
F4.4460906
tp2077
Rp2078
ag4
(F114.97579
F4.4217836
tp2079
Rp2080
ag4
(F114.96921
F4.3974826
tp2081
Rp2082
ag4
(F114.96268
F4.3736542
tp2083
Rp2084
ag4
(F114.95615
F4.3498259
tp2085
Rp2086
ag4
(F114.94963
F4.3261166
tp2087
Rp2088
ag4
(F114.94316
F4.3028654
tp2089
Rp2090
ag4
(F114.93668
F4.2796143
tp2091
Rp2092
ag4
(F114.93023
F4.2565578
tp2093
Rp2094
ag4
(F114.92381
F4.2337933
tp2095
Rp2096
ag4
(F114.91739
F4.2110289
tp2097
Rp2098
ag4
(F114.911
F4.1885888
tp2099
Rp2100
ag4
(F114.90463
F4.1663708
tp2101
Rp2102
ag4
(F114.89826
F4.1441528
tp2103
Rp2104
ag4
(F114.89187
F4.1222605
tp2105
Rp2106
ag4
(F114.88549
F4.100456
tp2107
Rp2108
ag4
(F114.8791
F4.0786516
tp2109
Rp2110
ag4
(F114.87269
F4.057329
tp2111
Rp2112
ag4
(F114.86629
F4.0360157
tp2113
Rp2114
ag4
(F114.8599
F4.0147759
tp2115
Rp2116
ag4
(F114.85359
F3.9938833
tp2117
Rp2118
ag4
(F114.84728
F3.9729906
tp2119
Rp2120
ag4
(F114.84103
F3.9523207
tp2121
Rp2122
ag4
(F114.83486
F3.9320322
tp2123
Rp2124
ag4
(F114.82869
F3.9117436
tp2125
Rp2126
ag4
(F114.82251
F3.8916112
tp2127
Rp2128
ag4
(F114.81633
F3.8716002
tp2129
Rp2130
ag4
(F114.81015
F3.8515893
tp2131
Rp2132
ag4
(F114.80396
F3.8320036
tp2133
Rp2134
ag4
(F114.79775
F3.8125551
tp2135
Rp2136
ag4
(F114.79155
F3.7931065
tp2137
Rp2138
ag4
(F114.78539
F3.7738347
tp2139
Rp2140
ag4
(F114.77923
F3.7545721
tp2141
Rp2142
ag4
(F114.77311
F3.7354061
tp2143
Rp2144
ag4
(F114.76713
F3.7168146
tp2145
Rp2146
ag4
(F114.76116
F3.698223
tp2147
Rp2148
ag4
(F114.75519
F3.6796508
tp2149
Rp2150
ag4
(F114.74922
F3.6611164
tp2151
Rp2152
ag4
(F114.74325
F3.642582
tp2153
Rp2154
ag4
(F114.73733
F3.6244561
tp2155
Rp2156
ag4
(F114.73146
F3.6066908
tp2157
Rp2158
ag4
(F114.72558
F3.5889254
tp2159
Rp2160
ag4
(F114.7197
F3.57116
tp2161
Rp2162
ag4
(F114.71382
F3.5533945
tp2163
Rp2164
ag4
(F114.70794
F3.5356291
tp2165
Rp2166
ag4
(F114.70214
F3.5185056
tp2167
Rp2168
ag4
(F114.69634
F3.5014389
tp2169
Rp2170
ag4
(F114.69055
F3.4843821
tp2171
Rp2172
ag4
(F114.68477
F3.4674044
tp2173
Rp2174
ag4
(F114.67898
F3.4504267
tp2175
Rp2176
ag4
(F114.67325
F3.4336018
tp2177
Rp2178
ag4
(F114.66761
F3.4171229
tp2179
Rp2180
ag4
(F114.66197
F3.400644
tp2181
Rp2182
ag4
(F114.65637
F3.3842884
tp2183
Rp2184
ag4
(F114.6508
F3.368056
tp2185
Rp2186
ag4
(F114.64524
F3.3518237
tp2187
Rp2188
ag4
(F114.6397
F3.3357975
tp2189
Rp2190
ag4
(F114.63417
F3.3198622
tp2191
Rp2192
ag4
(F114.62864
F3.303927
tp2193
Rp2194
ag4
(F114.62315
F3.2883626
tp2195
Rp2196
ag4
(F114.61767
F3.2728452
tp2197
Rp2198
ag4
(F114.6122
F3.2573348
tp2199
Rp2200
ag4
(F114.60675
F3.2419041
tp2201
Rp2202
ag4
(F114.6013
F3.2264735
tp2203
Rp2204
ag4
(F114.59589
F3.2112091
tp2205
Rp2206
ag4
(F114.59063
F3.1963831
tp2207
Rp2208
ag4
(F114.58536
F3.1815571
tp2209
Rp2210
ag4
(F114.58009
F3.1667311
tp2211
Rp2212
ag4
(F114.57482
F3.1519051
tp2213
Rp2214
ag4
(F114.56956
F3.1370791
tp2215
Rp2216
ag4
(F114.56433
F3.1225979
tp2217
Rp2218
ag4
(F114.55913
F3.1082924
tp2219
Rp2220
ag4
(F114.55393
F3.0939868
tp2221
Rp2222
ag4
(F114.54875
F3.0797936
tp2223
Rp2224
ag4
(F114.54356
F3.0656192
tp2225
Rp2226
ag4
(F114.53838
F3.0514586
tp2227
Rp2228
ag4
(F114.53334
F3.037558
tp2229
Rp2230
ag4
(F114.52829
F3.0236575
tp2231
Rp2232
ag4
(F114.52329
F3.009844
tp2233
Rp2234
ag4
(F114.51843
F2.9963008
tp2235
Rp2236
ag4
(F114.51356
F2.9827575
tp2237
Rp2238
ag4
(F114.5087
F2.9692224
tp2239
Rp2240
ag4
(F114.50384
F2.955698
tp2241
Rp2242
ag4
(F114.49898
F2.9421736
tp2243
Rp2244
ag4
(F114.49416
F2.9290193
tp2245
Rp2246
ag4
(F114.48937
F2.9160812
tp2247
Rp2248
ag4
(F114.48459
F2.9031431
tp2249
Rp2250
ag4
(F114.4798
F2.8902049
tp2251
Rp2252
ag4
(F114.47502
F2.8772667
tp2253
Rp2254
ag4
(F114.47024
F2.8643349
tp2255
Rp2256
ag4
(F114.46563
F2.8517357
tp2257
Rp2258
ag4
(F114.46102
F2.8391366
tp2259
Rp2260
ag4
(F114.45644
F2.8265877
tp2261
Rp2262
ag4
(F114.45196
F2.8142248
tp2263
Rp2264
ag4
(F114.44748
F2.8018618
tp2265
Rp2266
ag4
(F114.44301
F2.7895228
tp2267
Rp2268
ag4
(F114.43856
F2.7772186
tp2269
Rp2270
ag4
(F114.43411
F2.7649145
tp2271
Rp2272
ag4
(F114.42982
F2.7529017
tp2273
Rp2274
ag4
(F114.42564
F2.7410832
tp2275
Rp2276
ag4
(F114.42146
F2.7292647
tp2277
Rp2278
ag4
(F114.41727
F2.7174462
tp2279
Rp2280
ag4
(F114.41309
F2.7056277
tp2281
Rp2282
ag4
(F114.40891
F2.6938092
tp2283
Rp2284
ag4
(F114.40483
F2.6822981
tp2285
Rp2286
ag4
(F114.40075
F2.6707909
tp2287
Rp2288
ag4
(F114.39668
F2.6593234
tp2289
Rp2290
ag4
(F114.39268
F2.6480358
tp2291
Rp2292
ag4
(F114.38867
F2.6367481
tp2293
Rp2294
ag4
(F114.38467
F2.6254649
tp2295
Rp2296
ag4
(F114.38067
F2.6141894
tp2297
Rp2298
ag4
(F114.37667
F2.6029139
tp2299
Rp2300
ag4
(F114.37283
F2.5919152
tp2301
Rp2302
ag4
(F114.36911
F2.5811265
tp2303
Rp2304
ag4
(F114.36539
F2.5703378
tp2305
Rp2306
ag4
(F114.36166
F2.5595492
tp2307
Rp2308
ag4
(F114.35794
F2.5487605
tp2309
Rp2310
ag4
(F114.35422
F2.5379719
tp2311
Rp2312
ag4
(F114.35061
F2.5273782
tp2313
Rp2314
ag4
(F114.347
F2.5167934
tp2315
Rp2316
ag4
(F114.34342
F2.5062507
tp2317
Rp2318
ag4
(F114.33997
F2.4959472
tp2319
Rp2320
ag4
(F114.33652
F2.4856436
tp2321
Rp2322
ag4
(F114.33307
F2.47534
tp2323
Rp2324
ag4
(F114.32962
F2.4650365
tp2325
Rp2326
ag4
(F114.32617
F2.454733
tp2327
Rp2328
ag4
(F114.32288
F2.444623
tp2329
Rp2330
ag4
(F114.31972
F2.4346796
tp2331
Rp2332
ag4
(F114.31656
F2.4247361
tp2333
Rp2334
ag4
(F114.31346
F2.4148693
tp2335
Rp2336
ag4
(F114.31039
F2.4050306
tp2337
Rp2338
ag4
(F114.30731
F2.3951919
tp2339
Rp2340
ag4
(F114.30428
F2.3853876
tp2341
Rp2342
ag4
(F114.30124
F2.375586
tp2343
Rp2344
ag4
(F114.29826
F2.3658313
tp2345
Rp2346
ag4
(F114.29565
F2.3564244
tp2347
Rp2348
ag4
(F114.29304
F2.3470174
tp2349
Rp2350
ag4
(F114.29043
F2.3376105
tp2351
Rp2352
ag4
(F114.28782
F2.3282036
tp2353
Rp2354
ag4
(F114.28522
F2.3187967
tp2355
Rp2356
ag4
(F114.28269
F2.3094655
tp2357
Rp2358
ag4
(F114.28024
F2.3002082
tp2359
Rp2360
ag4
(F114.27779
F2.2909509
tp2361
Rp2362
ag4
(F114.27554
F2.2818846
tp2363
Rp2364
ag4
(F114.27339
F2.2729002
tp2365
Rp2366
ag4
(F114.27123
F2.2639157
tp2367
Rp2368
ag4
(F114.26908
F2.2549313
tp2369
Rp2370
ag4
(F114.26692
F2.2459469
tp2371
Rp2372
ag4
(F114.2648
F2.236983
tp2373
Rp2374
ag4
(F114.26301
F2.2282331
tp2375
Rp2376
ag4
(F114.26122
F2.2194831
tp2377
Rp2378
ag4
(F114.25952
F2.2107814
tp2379
Rp2380
ag4
(F114.258
F2.2022028
tp2381
Rp2382
ag4
(F114.25649
F2.1936243
tp2383
Rp2384
ag4
(F114.25497
F2.1850457
tp2385
Rp2386
ag4
(F114.25345
F2.176467
tp2387
Rp2388
ag4
(F114.25194
F2.1678884
tp2389
Rp2390
ag4
(F114.25084
F2.1595039
tp2391
Rp2392
ag4
(F114.24994
F2.1512157
tp2393
Rp2394
ag4
(F114.24905
F2.1429274
tp2395
Rp2396
ag4
(F114.24832
F2.1347197
tp2397
Rp2398
ag4
(F114.24763
F2.1265248
tp2399
Rp2400
ag4
(F114.24693
F2.1183299
tp2401
Rp2402
ag4
(F114.24624
F2.1101349
tp2403
Rp2404
ag4
(F114.24554
F2.10194
tp2405
Rp2406
ag4
(F114.24511
F2.0938269
tp2407
Rp2408
ag4
(F114.24547
F2.0859597
tp2409
Rp2410
ag4
(F114.24583
F2.0780925
tp2411
Rp2412
ag4
(F114.24624
F2.0702434
tp2413
Rp2414
ag4
(F114.24673
F2.0624168
tp2415
Rp2416
ag4
(F114.24722
F2.0545902
tp2417
Rp2418
ag4
(F114.24771
F2.0467635
tp2419
Rp2420
ag4
(F114.2482
F2.0389369
tp2421
Rp2422
ag4
(F114.24869
F2.0311102
tp2423
Rp2424
ag4
(F114.25058
F2.0235667
tp2425
Rp2426
ag4
(F114.25275
F2.0160806
tp2427
Rp2428
ag4
(F114.25493
F2.0085947
tp2429
Rp2430
ag4
(F114.25714
F2.0011168
tp2431
Rp2432
ag4
(F114.25936
F1.9936388
tp2433
Rp2434
ag4
(F114.26158
F1.9861621
tp2435
Rp2436
ag4
(F114.26385
F1.9786898
tp2437
Rp2438
ag4
(F114.26612
F1.9712175
tp2439
Rp2440
ag4
(F114.26964
F1.9638831
tp2441
Rp2442
ag4
(F114.27494
F1.9567453
tp2443
Rp2444
ag4
(F114.28025
F1.9496074
tp2445
Rp2446
ag4
(F114.28556
F1.9424696
tp2447
Rp2448
ag4
(F114.29087
F1.9353317
tp2449
Rp2450
ag4
(F114.29617
F1.9281938
tp2451
Rp2452
ag4
(F114.30153
F1.9210582
tp2453
Rp2454
ag4
(F114.3069
F1.913923
tp2455
Rp2456
ag4
(F114.31227
F1.9067879
tp2457
Rp2458
ag4
(F114.325
F1.8999658
tp2459
Rp2460
ag4
(F114.33777
F1.8931456
tp2461
Rp2462
ag4
(F114.35055
F1.8863255
tp2463
Rp2464
ag4
(F114.36333
F1.8795054
tp2465
Rp2466
ag4
(F114.3761
F1.8726852
tp2467
Rp2468
ag4
(F114.38888
F1.8658651
tp2469
Rp2470
ag4
(F114.40166
F1.859045
tp2471
Rp2472
ag4
(F114.41443
F1.8522249
tp2473
Rp2474
ag4
(F114.44457
F1.8455741
tp2475
Rp2476
ag4
(F114.48755
F1.8390485
tp2477
Rp2478
ag4
(F114.53053
F1.8325229
tp2479
Rp2480
ag4
(F114.57468
F1.8260087
tp2481
Rp2482
ag4
(F114.61919
F1.819498
tp2483
Rp2484
ag4
(F114.66371
F1.8129873
tp2485
Rp2486
ag4
(F114.70822
F1.8064767
tp2487
Rp2488
ag4
(F114.75273
F1.799966
tp2489
Rp2490
ag4
(F114.78627
F1.7934939
tp2491
Rp2492
ag4
(F114.76055
F1.7872304
tp2493
Rp2494
ag4
(F114.73483
F1.7809668
tp2495
Rp2496
ag4
(F114.70461
F1.7747191
tp2497
Rp2498
ag4
(F114.66605
F1.7685008
tp2499
Rp2500
ag4
(F114.62748
F1.7622824
tp2501
Rp2502
ag4
(F114.58891
F1.7560641
tp2503
Rp2504
ag4
(F114.55035
F1.7498457
tp2505
Rp2506
ag4
(F114.51178
F1.7436273
tp2507
Rp2508
ag4
(F114.46693
F1.7375514
tp2509
Rp2510
ag4
(F114.41984
F1.7315262
tp2511
Rp2512
ag4
(F114.37275
F1.725501
tp2513
Rp2514
ag4
(F114.32208
F1.719557
tp2515
Rp2516
ag4
(F114.27115
F1.713619
tp2517
Rp2518
ag4
(F114.22021
F1.707681
tp2519
Rp2520
ag4
(F114.16928
F1.701743
tp2521
Rp2522
ag4
(F114.11834
F1.695805
tp2523
Rp2524
ag4
(F114.07332
F1.6899084
tp2525
Rp2526
ag4
(F114.04095
F1.6841004
tp2527
Rp2528
ag4
(F114.00859
F1.6782923
tp2529
Rp2530
ag4
(F113.98644
F1.6725559
tp2531
Rp2532
ag4
(F113.97402
F1.6668876
tp2533
Rp2534
ag4
(F113.9616
F1.6612193
tp2535
Rp2536
ag4
(F113.94919
F1.655551
tp2537
Rp2538
ag4
(F113.93677
F1.6498826
tp2539
Rp2540
ag4
(F113.92435
F1.6442143
tp2541
Rp2542
ag4
(F113.91184
F1.6385969
tp2543
Rp2544
ag4
(F113.89931
F1.6329852
tp2545
Rp2546
ag4
(F113.88674
F1.6273922
tp2547
Rp2548
ag4
(F113.87383
F1.6219789
tp2549
Rp2550
ag4
(F113.86092
F1.6165657
tp2551
Rp2552
ag4
(F113.84801
F1.6111525
tp2553
Rp2554
ag4
(F113.8351
F1.6057393
tp2555
Rp2556
ag4
(F113.82219
F1.6003261
tp2557
Rp2558
ag4
(F113.80928
F1.5949129
tp2559
Rp2560
ag4
(F113.79637
F1.5894996
tp2561
Rp2562
ag4
(F113.78345
F1.5840864
tp2563
Rp2564
ag4
(F113.77187
F1.5788244
tp2565
Rp2566
ag4
(F113.76092
F1.5736351
tp2567
Rp2568
ag4
(F113.74997
F1.5684458
tp2569
Rp2570
ag4
(F113.73919
F1.5632758
tp2571
Rp2572
ag4
(F113.72843
F1.5581086
tp2573
Rp2574
ag4
(F113.71767
F1.5529414
tp2575
Rp2576
ag4
(F113.70692
F1.5477743
tp2577
Rp2578
ag4
(F113.69616
F1.5426072
tp2579
Rp2580
ag4
(F113.68563
F1.5374724
tp2581
Rp2582
ag4
(F113.67574
F1.5324318
tp2583
Rp2584
ag4
(F113.66584
F1.5273911
tp2585
Rp2586
ag4
(F113.65628
F1.5223981
tp2587
Rp2588
ag4
(F113.64711
F1.5174635
tp2589
Rp2590
ag4
(F113.63794
F1.5125288
tp2591
Rp2592
ag4
(F113.62877
F1.5075941
tp2593
Rp2594
ag4
(F113.6196
F1.5026594
tp2595
Rp2596
ag4
(F113.61043
F1.4977247
tp2597
Rp2598
ag4
(F113.60138
F1.4928133
tp2599
Rp2600
ag4
(F113.59235
F1.4879063
tp2601
Rp2602
ag4
(F113.58335
F1.4830055
tp2603
Rp2604
ag4
(F113.57532
F1.4782947
tp2605
Rp2606
ag4
(F113.56728
F1.4735838
tp2607
Rp2608
ag4
(F113.55924
F1.468873
tp2609
Rp2610
ag4
(F113.5512
F1.4641622
tp2611
Rp2612
ag4
(F113.54316
F1.4594514
tp2613
Rp2614
ag4
(F113.53513
F1.4547405
tp2615
Rp2616
ag4
(F113.52709
F1.4500297
tp2617
Rp2618
ag4
(F113.51905
F1.4453188
tp2619
Rp2620
ag4
(F113.51139
F1.4406931
tp2621
Rp2622
ag4
(F113.50396
F1.4361211
tp2623
Rp2624
ag4
(F113.49653
F1.4315492
tp2625
Rp2626
ag4
(F113.48936
F1.427038
tp2627
Rp2628
ag4
(F113.48226
F1.4225415
tp2629
Rp2630
ag4
(F113.47515
F1.4180449
tp2631
Rp2632
asb.